Archive member included to satisfy reference by file (symbol)

/opt/devkitpro/nflib/lib/libnflib.a(nf_2d.o)
                              main.o (NF_Set2D)
/opt/devkitpro/nflib/lib/libnflib.a(nf_basic.o)
                              /opt/devkitpro/nflib/lib/libnflib.a(nf_2d.o) (NF_Error)
/opt/devkitpro/nflib/lib/libnflib.a(nf_sprite256.o)
                              /opt/devkitpro/nflib/lib/libnflib.a(nf_2d.o) (NF_BUFFER_SPR256GFX)
/opt/devkitpro/nflib/lib/libnflib.a(nf_tiledbg.o)
                              main.o (NF_InitTiledBgBuffers)
/opt/devkitpro/libnds/lib/libfilesystem.a(nitrofs.o)
                              main.o (nitroFSInit)
/opt/devkitpro/libnds/lib/libfat.a(libfat.o)
                              /opt/devkitpro/libnds/lib/libfilesystem.a(nitrofs.o) (fatInitDefault)
/opt/devkitpro/libnds/lib/libfat.a(disc.o)
                              /opt/devkitpro/libnds/lib/libfat.a(libfat.o) (_FAT_disc_interfaces)
/opt/devkitpro/libnds/lib/libfat.a(fatfile.o)
                              /opt/devkitpro/libnds/lib/libfat.a(libfat.o) (_FAT_open_r)
/opt/devkitpro/libnds/lib/libfat.a(cache.o)
                              /opt/devkitpro/libnds/lib/libfat.a(fatfile.o) (_FAT_cache_readSectors)
/opt/devkitpro/libnds/lib/libfat.a(fatdir.o)
                              /opt/devkitpro/libnds/lib/libfat.a(libfat.o) (_FAT_stat_r)
/opt/devkitpro/libnds/lib/libfat.a(directory.o)
                              /opt/devkitpro/libnds/lib/libfat.a(fatfile.o) (_FAT_directory_entryGetCluster)
/opt/devkitpro/libnds/lib/libfat.a(partition.o)
                              /opt/devkitpro/libnds/lib/libfat.a(libfat.o) (_FAT_partition_destructor)
/opt/devkitpro/libnds/lib/libfat.a(lock.o)
                              /opt/devkitpro/libnds/lib/libfat.a(partition.o) (_FAT_lock_init)
/opt/devkitpro/libnds/lib/libfat.a(filetime.o)
                              /opt/devkitpro/libnds/lib/libfat.a(fatfile.o) (_FAT_filetime_getTimeFromRTC)
/opt/devkitpro/libnds/lib/libfat.a(file_allocation_table.o)
                              /opt/devkitpro/libnds/lib/libfat.a(fatfile.o) (_FAT_fat_nextCluster)
/opt/devkitpro/libnds/lib/libnds9.a(video.o)
                              /opt/devkitpro/nflib/lib/libnflib.a(nf_basic.o) (setBrightness)
/opt/devkitpro/libnds/lib/libnds9.a(console.o)
                              main.o (consoleDemoInit)
/opt/devkitpro/libnds/lib/libnds9.a(sprite.o)
                              /opt/devkitpro/nflib/lib/libnflib.a(nf_sprite256.o) (oamInit)
/opt/devkitpro/libnds/lib/libnds9.a(keys.o)
                              main.o (scanKeys)
/opt/devkitpro/libnds/lib/libnds9.a(dldi.o)
                              /opt/devkitpro/libnds/lib/libfat.a(disc.o) (dldiGetInternal)
/opt/devkitpro/libnds/lib/libnds9.a(initSystem.o)
                              /opt/devkitpro/devkitARM/bin/../lib/gcc/arm-none-eabi/12.2.0/../../../../arm-none-eabi/lib/ds_arm9_crt0.o (initSystem)
/opt/devkitpro/libnds/lib/libnds9.a(securearea.o)
                              /opt/devkitpro/devkitARM/bin/../lib/gcc/arm-none-eabi/12.2.0/../../../../arm-none-eabi/lib/ds_arm9_crt0.o (__secure_area__)
/opt/devkitpro/libnds/lib/libnds9.a(interrupts.o)
                              /opt/devkitpro/libnds/lib/libnds9.a(initSystem.o) (irqInit)
/opt/devkitpro/libnds/lib/libnds9.a(libnds_exit.arm.o)
                              /opt/devkitpro/devkitARM/bin/../lib/gcc/arm-none-eabi/12.2.0/../../../../arm-none-eabi/lib/ds_arm9_crt0.o (__libnds_exit)
/opt/devkitpro/libnds/lib/libnds9.a(card.o)
                              /opt/devkitpro/libnds/lib/libfilesystem.a(nitrofs.o) (cardParamCommand)
/opt/devkitpro/libnds/lib/libnds9.a(fifosystem.o)
                              /opt/devkitpro/libnds/lib/libnds9.a(initSystem.o) (fifoSetValue32Handler)
/opt/devkitpro/libnds/lib/libnds9.a(dcache.o)
                              /opt/devkitpro/nflib/lib/libnflib.a(nf_basic.o) (DC_FlushRange)
/opt/devkitpro/libnds/lib/libnds9.a(dldi_stub.o)
                              /opt/devkitpro/libnds/lib/libnds9.a(dldi.o) (_io_dldi_stub)
/opt/devkitpro/libnds/lib/libnds9.a(mpu_setup.o)
                              /opt/devkitpro/devkitARM/bin/../lib/gcc/arm-none-eabi/12.2.0/../../../../arm-none-eabi/lib/ds_arm9_crt0.o (__libnds_mpu_setup)
/opt/devkitpro/libnds/lib/libnds9.a(IntrWait.o)
                              main.o (swiWaitForVBlank)
/opt/devkitpro/libnds/lib/libnds9.a(cpu_clock.o)
                              /opt/devkitpro/libnds/lib/libnds9.a(initSystem.o) (setCpuClock)
/opt/devkitpro/libnds/lib/libnds9.a(interruptDispatcher.o)
                              /opt/devkitpro/libnds/lib/libnds9.a(interrupts.o) (IntrMain)
/opt/devkitpro/libnds/lib/libnds9.a(biosCalls.o)
                              /opt/devkitpro/libnds/lib/libnds9.a(card.o) (swiDelay)
/opt/devkitpro/libnds/lib/libnds9.a(debugprint.o)
                              /opt/devkitpro/libnds/lib/libnds9.a(console.o) (nocashWrite)
/opt/devkitpro/libnds/lib/libnds9.a(swiSoftReset.o)
                              /opt/devkitpro/libnds/lib/libnds9.a(fifosystem.o) (swiSoftReset)
/opt/devkitpro/libnds/lib/libnds9.a(default_font.bin.o)
                              /opt/devkitpro/libnds/lib/libnds9.a(console.o) (default_font_bin)
/opt/devkitpro/libnds/lib/libnds9.a(background.o)
                              /opt/devkitpro/libnds/lib/libnds9.a(console.o) (bgState)
/opt/devkitpro/libnds/lib/libnds9.a(trig.o)
                              /opt/devkitpro/libnds/lib/libnds9.a(sprite.o) (sinLerp)
/opt/devkitpro/libnds/lib/libnds9.a(sprite_alloc.o)
                              /opt/devkitpro/libnds/lib/libnds9.a(sprite.o) (oamAllocReset)
/opt/devkitpro/libnds/lib/libnds9.a(system.o)
                              /opt/devkitpro/libnds/lib/libnds9.a(initSystem.o) (systemValueHandler)
/opt/devkitpro/libnds/lib/libnds9.a(sd.twl.o)
                              /opt/devkitpro/libnds/lib/libnds9.a(dldi.o) (__io_dsisd)
/opt/devkitpro/devkitARM/bin/../lib/gcc/arm-none-eabi/12.2.0/libgcc.a(_udivsi3.o)
                              /opt/devkitpro/nflib/lib/libnflib.a(nf_sprite256.o) (__aeabi_uidiv)
/opt/devkitpro/devkitARM/bin/../lib/gcc/arm-none-eabi/12.2.0/libgcc.a(_divsi3.o)
                              /opt/devkitpro/libnds/lib/libfat.a(fatfile.o) (__aeabi_idiv)
/opt/devkitpro/devkitARM/bin/../lib/gcc/arm-none-eabi/12.2.0/libgcc.a(_dvmd_tls.o)
                              /opt/devkitpro/devkitARM/bin/../lib/gcc/arm-none-eabi/12.2.0/libgcc.a(_udivsi3.o) (__aeabi_idiv0)
/opt/devkitpro/devkitARM/bin/../lib/gcc/arm-none-eabi/12.2.0/libgcc.a(_aeabi_ldivmod.o)
                              /opt/devkitpro/libnds/lib/libfat.a(directory.o) (__aeabi_ldivmod)
/opt/devkitpro/devkitARM/bin/../lib/gcc/arm-none-eabi/12.2.0/libgcc.a(_muldi3.o)
                              /opt/devkitpro/libnds/lib/libfat.a(partition.o) (__aeabi_lmul)
/opt/devkitpro/devkitARM/bin/../lib/gcc/arm-none-eabi/12.2.0/libgcc.a(_udivmoddi4.o)
                              /opt/devkitpro/devkitARM/bin/../lib/gcc/arm-none-eabi/12.2.0/libgcc.a(_aeabi_ldivmod.o) (__udivmoddi4)
/opt/devkitpro/devkitARM/bin/../lib/gcc/arm-none-eabi/12.2.0/libgcc.a(_clzdi2.o)
                              /opt/devkitpro/devkitARM/bin/../lib/gcc/arm-none-eabi/12.2.0/libgcc.a(_udivmoddi4.o) (__clzdi2)
/opt/devkitpro/devkitARM/bin/../lib/gcc/arm-none-eabi/12.2.0/libgcc.a(_clzsi2.o)
                              /opt/devkitpro/devkitARM/bin/../lib/gcc/arm-none-eabi/12.2.0/libgcc.a(_clzdi2.o) (__clzsi2)
/opt/devkitpro/devkitARM/bin/../lib/gcc/arm-none-eabi/12.2.0/../../../../arm-none-eabi/lib/libg.a(libc_a-calloc.o)
                              /opt/devkitpro/nflib/lib/libnflib.a(nf_basic.o) (calloc)
/opt/devkitpro/devkitARM/bin/../lib/gcc/arm-none-eabi/12.2.0/../../../../arm-none-eabi/lib/libg.a(libc_a-callocr.o)
                              /opt/devkitpro/devkitARM/bin/../lib/gcc/arm-none-eabi/12.2.0/../../../../arm-none-eabi/lib/libg.a(libc_a-calloc.o) (_calloc_r)
/opt/devkitpro/devkitARM/bin/../lib/gcc/arm-none-eabi/12.2.0/../../../../arm-none-eabi/lib/libg.a(libc_a-malloc.o)
                              /opt/devkitpro/nflib/lib/libnflib.a(nf_basic.o) (malloc)
/opt/devkitpro/devkitARM/bin/../lib/gcc/arm-none-eabi/12.2.0/../../../../arm-none-eabi/lib/libg.a(libc_a-mallocr.o)
                              /opt/devkitpro/devkitARM/bin/../lib/gcc/arm-none-eabi/12.2.0/../../../../arm-none-eabi/lib/libg.a(libc_a-callocr.o) (_malloc_r)
/opt/devkitpro/devkitARM/bin/../lib/gcc/arm-none-eabi/12.2.0/../../../../arm-none-eabi/lib/libg.a(libc_a-mlock.o)
                              /opt/devkitpro/devkitARM/bin/../lib/gcc/arm-none-eabi/12.2.0/../../../../arm-none-eabi/lib/libg.a(libc_a-mallocr.o) (__malloc_lock)
/opt/devkitpro/devkitARM/bin/../lib/gcc/arm-none-eabi/12.2.0/../../../../arm-none-eabi/lib/libg.a(libc_a-realloc.o)
                              /opt/devkitpro/libnds/lib/libnds9.a(sprite_alloc.o) (realloc)
/opt/devkitpro/devkitARM/bin/../lib/gcc/arm-none-eabi/12.2.0/../../../../arm-none-eabi/lib/libg.a(libc_a-reallocr.o)
                              /opt/devkitpro/devkitARM/bin/../lib/gcc/arm-none-eabi/12.2.0/../../../../arm-none-eabi/lib/libg.a(libc_a-realloc.o) (_realloc_r)
/opt/devkitpro/devkitARM/bin/../lib/gcc/arm-none-eabi/12.2.0/../../../../arm-none-eabi/lib/libg.a(libc_a-mbrtowc.o)
                              /opt/devkitpro/libnds/lib/libfat.a(directory.o) (mbrtowc)
/opt/devkitpro/devkitARM/bin/../lib/gcc/arm-none-eabi/12.2.0/../../../../arm-none-eabi/lib/libg.a(libc_a-mbsrtowcs.o)
                              /opt/devkitpro/libnds/lib/libfat.a(directory.o) (mbsrtowcs)
/opt/devkitpro/devkitARM/bin/../lib/gcc/arm-none-eabi/12.2.0/../../../../arm-none-eabi/lib/libg.a(libc_a-wcrtomb.o)
                              /opt/devkitpro/libnds/lib/libfat.a(directory.o) (wcrtomb)
/opt/devkitpro/devkitARM/bin/../lib/gcc/arm-none-eabi/12.2.0/../../../../arm-none-eabi/lib/libg.a(libc_a-wctob.o)
                              /opt/devkitpro/libnds/lib/libfat.a(directory.o) (wctob)
/opt/devkitpro/devkitARM/bin/../lib/gcc/arm-none-eabi/12.2.0/../../../../arm-none-eabi/lib/libg.a(libc_a-ctype_.o)
                              /opt/devkitpro/libnds/lib/libfat.a(directory.o) (_ctype_)
/opt/devkitpro/devkitARM/bin/../lib/gcc/arm-none-eabi/12.2.0/../../../../arm-none-eabi/lib/libg.a(libc_a-towlower.o)
                              /opt/devkitpro/libnds/lib/libfat.a(directory.o) (towlower)
/opt/devkitpro/devkitARM/bin/../lib/gcc/arm-none-eabi/12.2.0/../../../../arm-none-eabi/lib/libg.a(libc_a-towupper.o)
                              /opt/devkitpro/libnds/lib/libfat.a(directory.o) (towupper)
/opt/devkitpro/devkitARM/bin/../lib/gcc/arm-none-eabi/12.2.0/../../../../arm-none-eabi/lib/libg.a(libc_a-bsearch.o)
                              /opt/devkitpro/libnds/lib/libnds9.a(trig.o) (bsearch)
/opt/devkitpro/devkitARM/bin/../lib/gcc/arm-none-eabi/12.2.0/../../../../arm-none-eabi/lib/libg.a(libc_a-iprintf.o)
                              /opt/devkitpro/nflib/lib/libnflib.a(nf_basic.o) (iprintf)
/opt/devkitpro/devkitARM/bin/../lib/gcc/arm-none-eabi/12.2.0/../../../../arm-none-eabi/lib/libg.a(libc_a-siscanf.o)
                              /opt/devkitpro/libnds/lib/libnds9.a(console.o) (siscanf)
/opt/devkitpro/devkitARM/bin/../lib/gcc/arm-none-eabi/12.2.0/../../../../arm-none-eabi/lib/libg.a(libc_a-svfiscanf.o)
                              /opt/devkitpro/devkitARM/bin/../lib/gcc/arm-none-eabi/12.2.0/../../../../arm-none-eabi/lib/libg.a(libc_a-siscanf.o) (__ssvfiscanf_r)
/opt/devkitpro/devkitARM/bin/../lib/gcc/arm-none-eabi/12.2.0/../../../../arm-none-eabi/lib/libg.a(libc_a-vfiprintf.o)
                              /opt/devkitpro/devkitARM/bin/../lib/gcc/arm-none-eabi/12.2.0/../../../../arm-none-eabi/lib/libg.a(libc_a-iprintf.o) (_vfiprintf_r)
/opt/devkitpro/devkitARM/bin/../lib/gcc/arm-none-eabi/12.2.0/../../../../arm-none-eabi/lib/libg.a(libc_a-fclose.o)
                              /opt/devkitpro/nflib/lib/libnflib.a(nf_basic.o) (fclose)
/opt/devkitpro/devkitARM/bin/../lib/gcc/arm-none-eabi/12.2.0/../../../../arm-none-eabi/lib/libg.a(libc_a-fflush.o)
                              /opt/devkitpro/devkitARM/bin/../lib/gcc/arm-none-eabi/12.2.0/../../../../arm-none-eabi/lib/libg.a(libc_a-fclose.o) (__sflush_r)
/opt/devkitpro/devkitARM/bin/../lib/gcc/arm-none-eabi/12.2.0/../../../../arm-none-eabi/lib/libg.a(libc_a-findfp.o)
                              /opt/devkitpro/devkitARM/bin/../lib/gcc/arm-none-eabi/12.2.0/../../../../arm-none-eabi/lib/libg.a(libc_a-fflush.o) (__sglue)
/opt/devkitpro/devkitARM/bin/../lib/gcc/arm-none-eabi/12.2.0/../../../../arm-none-eabi/lib/libg.a(libc_a-fopen.o)
                              /opt/devkitpro/nflib/lib/libnflib.a(nf_basic.o) (fopen)
/opt/devkitpro/devkitARM/bin/../lib/gcc/arm-none-eabi/12.2.0/../../../../arm-none-eabi/lib/libg.a(libc_a-fread.o)
                              /opt/devkitpro/nflib/lib/libnflib.a(nf_basic.o) (fread)
/opt/devkitpro/devkitARM/bin/../lib/gcc/arm-none-eabi/12.2.0/../../../../arm-none-eabi/lib/libg.a(libc_a-fseek.o)
                              /opt/devkitpro/devkitARM/bin/../lib/gcc/arm-none-eabi/12.2.0/../../../../arm-none-eabi/lib/libg.a(libc_a-fopen.o) (_fseek_r)
/opt/devkitpro/devkitARM/bin/../lib/gcc/arm-none-eabi/12.2.0/../../../../arm-none-eabi/lib/libg.a(libc_a-ftell.o)
                              /opt/devkitpro/nflib/lib/libnflib.a(nf_basic.o) (ftell)
/opt/devkitpro/devkitARM/bin/../lib/gcc/arm-none-eabi/12.2.0/../../../../arm-none-eabi/lib/libg.a(libc_a-fvwrite.o)
                              /opt/devkitpro/devkitARM/bin/../lib/gcc/arm-none-eabi/12.2.0/../../../../arm-none-eabi/lib/libg.a(libc_a-vfiprintf.o) (__sfvwrite_r)
/opt/devkitpro/devkitARM/bin/../lib/gcc/arm-none-eabi/12.2.0/../../../../arm-none-eabi/lib/libg.a(libc_a-fwalk.o)
                              /opt/devkitpro/devkitARM/bin/../lib/gcc/arm-none-eabi/12.2.0/../../../../arm-none-eabi/lib/libg.a(libc_a-fflush.o) (_fwalk_sglue)
/opt/devkitpro/devkitARM/bin/../lib/gcc/arm-none-eabi/12.2.0/../../../../arm-none-eabi/lib/libg.a(libc_a-makebuf.o)
                              /opt/devkitpro/devkitARM/bin/../lib/gcc/arm-none-eabi/12.2.0/../../../../arm-none-eabi/lib/libg.a(libc_a-fread.o) (__smakebuf_r)
/opt/devkitpro/devkitARM/bin/../lib/gcc/arm-none-eabi/12.2.0/../../../../arm-none-eabi/lib/libg.a(libc_a-puts.o)
                              main.o (puts)
/opt/devkitpro/devkitARM/bin/../lib/gcc/arm-none-eabi/12.2.0/../../../../arm-none-eabi/lib/libg.a(libc_a-refill.o)
                              /opt/devkitpro/devkitARM/bin/../lib/gcc/arm-none-eabi/12.2.0/../../../../arm-none-eabi/lib/libg.a(libc_a-fread.o) (__srefill_r)
/opt/devkitpro/devkitARM/bin/../lib/gcc/arm-none-eabi/12.2.0/../../../../arm-none-eabi/lib/libg.a(libc_a-rewind.o)
                              /opt/devkitpro/nflib/lib/libnflib.a(nf_basic.o) (rewind)
/opt/devkitpro/devkitARM/bin/../lib/gcc/arm-none-eabi/12.2.0/../../../../arm-none-eabi/lib/libg.a(libc_a-sccl.o)
                              /opt/devkitpro/devkitARM/bin/../lib/gcc/arm-none-eabi/12.2.0/../../../../arm-none-eabi/lib/libg.a(libc_a-svfiscanf.o) (__sccl)
/opt/devkitpro/devkitARM/bin/../lib/gcc/arm-none-eabi/12.2.0/../../../../arm-none-eabi/lib/libg.a(libc_a-setvbuf.o)
                              /opt/devkitpro/libnds/lib/libnds9.a(console.o) (setvbuf)
/opt/devkitpro/devkitARM/bin/../lib/gcc/arm-none-eabi/12.2.0/../../../../arm-none-eabi/lib/libg.a(libc_a-snprintf.o)
                              /opt/devkitpro/nflib/lib/libnflib.a(nf_2d.o) (snprintf)
/opt/devkitpro/devkitARM/bin/../lib/gcc/arm-none-eabi/12.2.0/../../../../arm-none-eabi/lib/libg.a(libc_a-stdio.o)
                              /opt/devkitpro/devkitARM/bin/../lib/gcc/arm-none-eabi/12.2.0/../../../../arm-none-eabi/lib/libg.a(libc_a-findfp.o) (__sread)
/opt/devkitpro/devkitARM/bin/../lib/gcc/arm-none-eabi/12.2.0/../../../../arm-none-eabi/lib/libg.a(libc_a-ungetc.o)
                              /opt/devkitpro/devkitARM/bin/../lib/gcc/arm-none-eabi/12.2.0/../../../../arm-none-eabi/lib/libg.a(libc_a-svfiscanf.o) (__submore)
/opt/devkitpro/devkitARM/bin/../lib/gcc/arm-none-eabi/12.2.0/../../../../arm-none-eabi/lib/libg.a(libc_a-wsetup.o)
                              /opt/devkitpro/devkitARM/bin/../lib/gcc/arm-none-eabi/12.2.0/../../../../arm-none-eabi/lib/libg.a(libc_a-vfiprintf.o) (__swsetup_r)
/opt/devkitpro/devkitARM/bin/../lib/gcc/arm-none-eabi/12.2.0/../../../../arm-none-eabi/lib/libg.a(libc_a-fseeko.o)
                              /opt/devkitpro/devkitARM/bin/../lib/gcc/arm-none-eabi/12.2.0/../../../../arm-none-eabi/lib/libg.a(libc_a-fseek.o) (_fseeko_r)
/opt/devkitpro/devkitARM/bin/../lib/gcc/arm-none-eabi/12.2.0/../../../../arm-none-eabi/lib/libg.a(libc_a-ftello.o)
                              /opt/devkitpro/devkitARM/bin/../lib/gcc/arm-none-eabi/12.2.0/../../../../arm-none-eabi/lib/libg.a(libc_a-ftell.o) (_ftello_r)
/opt/devkitpro/devkitARM/bin/../lib/gcc/arm-none-eabi/12.2.0/../../../../arm-none-eabi/lib/libg.a(libc_a-memcmp.o)
                              /opt/devkitpro/libnds/lib/libfat.a(partition.o) (memcmp)
/opt/devkitpro/devkitARM/bin/../lib/gcc/arm-none-eabi/12.2.0/../../../../arm-none-eabi/lib/libg.a(libc_a-memmove.o)
                              /opt/devkitpro/libnds/lib/libfat.a(directory.o) (memmove)
/opt/devkitpro/devkitARM/bin/../lib/gcc/arm-none-eabi/12.2.0/../../../../arm-none-eabi/lib/libg.a(libc_a-memset.o)
                              /opt/devkitpro/nflib/lib/libnflib.a(nf_sprite256.o) (memset)
/opt/devkitpro/devkitARM/bin/../lib/gcc/arm-none-eabi/12.2.0/../../../../arm-none-eabi/lib/libg.a(libc_a-strcasecmp.o)
                              /opt/devkitpro/libnds/lib/libfilesystem.a(nitrofs.o) (strcasecmp)
/opt/devkitpro/devkitARM/bin/../lib/gcc/arm-none-eabi/12.2.0/../../../../arm-none-eabi/lib/libg.a(libc_a-strchr.o)
                              /opt/devkitpro/libnds/lib/libfilesystem.a(nitrofs.o) (strchr)
/opt/devkitpro/devkitARM/bin/../lib/gcc/arm-none-eabi/12.2.0/../../../../arm-none-eabi/lib/libg.a(libc_a-strdup.o)
                              /opt/devkitpro/libnds/lib/libfilesystem.a(nitrofs.o) (strdup)
/opt/devkitpro/devkitARM/bin/../lib/gcc/arm-none-eabi/12.2.0/../../../../arm-none-eabi/lib/libg.a(libc_a-strdup_r.o)
                              /opt/devkitpro/devkitARM/bin/../lib/gcc/arm-none-eabi/12.2.0/../../../../arm-none-eabi/lib/libg.a(libc_a-strdup.o) (_strdup_r)
/opt/devkitpro/devkitARM/bin/../lib/gcc/arm-none-eabi/12.2.0/../../../../arm-none-eabi/lib/libg.a(libc_a-strlen.o)
                              /opt/devkitpro/libnds/lib/libfilesystem.a(nitrofs.o) (strlen)
/opt/devkitpro/devkitARM/bin/../lib/gcc/arm-none-eabi/12.2.0/../../../../arm-none-eabi/lib/libg.a(libc_a-strncasecmp.o)
                              /opt/devkitpro/libnds/lib/libfat.a(libfat.o) (strncasecmp)
/opt/devkitpro/devkitARM/bin/../lib/gcc/arm-none-eabi/12.2.0/../../../../arm-none-eabi/lib/libg.a(libc_a-strncmp.o)
                              /opt/devkitpro/nflib/lib/libnflib.a(nf_basic.o) (strncmp)
/opt/devkitpro/devkitARM/bin/../lib/gcc/arm-none-eabi/12.2.0/../../../../arm-none-eabi/lib/libg.a(libc_a-strncpy.o)
                              /opt/devkitpro/libnds/lib/libfilesystem.a(nitrofs.o) (strncpy)
/opt/devkitpro/devkitARM/bin/../lib/gcc/arm-none-eabi/12.2.0/../../../../arm-none-eabi/lib/libg.a(libc_a-strnlen.o)
                              /opt/devkitpro/libnds/lib/libfat.a(directory.o) (strnlen)
/opt/devkitpro/devkitARM/bin/../lib/gcc/arm-none-eabi/12.2.0/../../../../arm-none-eabi/lib/libg.a(libc_a-strpbrk.o)
                              /opt/devkitpro/libnds/lib/libfat.a(directory.o) (strpbrk)
/opt/devkitpro/devkitARM/bin/../lib/gcc/arm-none-eabi/12.2.0/../../../../arm-none-eabi/lib/libg.a(libc_a-strrchr.o)
                              /opt/devkitpro/libnds/lib/libfat.a(libfat.o) (strrchr)
/opt/devkitpro/devkitARM/bin/../lib/gcc/arm-none-eabi/12.2.0/../../../../arm-none-eabi/lib/libg.a(libc_a-stpcpy.o)
                              /opt/devkitpro/libnds/lib/libfat.a(libfat.o) (stpcpy)
/opt/devkitpro/devkitARM/bin/../lib/gcc/arm-none-eabi/12.2.0/../../../../arm-none-eabi/lib/libg.a(libc_a-lcltime_r.o)
                              /opt/devkitpro/libnds/lib/libfat.a(filetime.o) (localtime_r)
/opt/devkitpro/devkitARM/bin/../lib/gcc/arm-none-eabi/12.2.0/../../../../arm-none-eabi/lib/libg.a(libc_a-mktime.o)
                              /opt/devkitpro/libnds/lib/libfat.a(filetime.o) (mktime)
/opt/devkitpro/devkitARM/bin/../lib/gcc/arm-none-eabi/12.2.0/../../../../arm-none-eabi/lib/libg.a(libc_a-month_lengths.o)
                              /opt/devkitpro/devkitARM/bin/../lib/gcc/arm-none-eabi/12.2.0/../../../../arm-none-eabi/lib/libg.a(libc_a-lcltime_r.o) (__month_lengths)
/opt/devkitpro/devkitARM/bin/../lib/gcc/arm-none-eabi/12.2.0/../../../../arm-none-eabi/lib/libg.a(libc_a-time.o)
                              /opt/devkitpro/libnds/lib/libfat.a(filetime.o) (time)
/opt/devkitpro/devkitARM/bin/../lib/gcc/arm-none-eabi/12.2.0/../../../../arm-none-eabi/lib/libg.a(libc_a-tzcalc_limits.o)
                              /opt/devkitpro/devkitARM/bin/../lib/gcc/arm-none-eabi/12.2.0/../../../../arm-none-eabi/lib/libg.a(libc_a-lcltime_r.o) (__tzcalc_limits)
/opt/devkitpro/devkitARM/bin/../lib/gcc/arm-none-eabi/12.2.0/../../../../arm-none-eabi/lib/libg.a(libc_a-tzlock.o)
                              /opt/devkitpro/devkitARM/bin/../lib/gcc/arm-none-eabi/12.2.0/../../../../arm-none-eabi/lib/libg.a(libc_a-lcltime_r.o) (__tz_lock)
/opt/devkitpro/devkitARM/bin/../lib/gcc/arm-none-eabi/12.2.0/../../../../arm-none-eabi/lib/libg.a(libc_a-tzset.o)
                              /opt/devkitpro/devkitARM/bin/../lib/gcc/arm-none-eabi/12.2.0/../../../../arm-none-eabi/lib/libg.a(libc_a-lcltime_r.o) (_tzset_unlocked)
/opt/devkitpro/devkitARM/bin/../lib/gcc/arm-none-eabi/12.2.0/../../../../arm-none-eabi/lib/libg.a(libc_a-tzset_r.o)
                              /opt/devkitpro/devkitARM/bin/../lib/gcc/arm-none-eabi/12.2.0/../../../../arm-none-eabi/lib/libg.a(libc_a-tzset.o) (_tzset_unlocked_r)
/opt/devkitpro/devkitARM/bin/../lib/gcc/arm-none-eabi/12.2.0/../../../../arm-none-eabi/lib/libg.a(libc_a-tzvars.o)
                              /opt/devkitpro/devkitARM/bin/../lib/gcc/arm-none-eabi/12.2.0/../../../../arm-none-eabi/lib/libg.a(libc_a-tzset_r.o) (_timezone)
/opt/devkitpro/devkitARM/bin/../lib/gcc/arm-none-eabi/12.2.0/../../../../arm-none-eabi/lib/libg.a(libc_a-locale.o)
                              /opt/devkitpro/devkitARM/bin/../lib/gcc/arm-none-eabi/12.2.0/../../../../arm-none-eabi/lib/libg.a(libc_a-mbrtowc.o) (__global_locale)
/opt/devkitpro/devkitARM/bin/../lib/gcc/arm-none-eabi/12.2.0/../../../../arm-none-eabi/lib/libg.a(libc_a-localeconv.o)
                              /opt/devkitpro/devkitARM/bin/../lib/gcc/arm-none-eabi/12.2.0/../../../../arm-none-eabi/lib/libg.a(libc_a-vfiprintf.o) (_localeconv_r)
/opt/devkitpro/devkitARM/bin/../lib/gcc/arm-none-eabi/12.2.0/../../../../arm-none-eabi/lib/libg.a(libc_a-impure.o)
                              /opt/devkitpro/devkitARM/bin/../lib/gcc/arm-none-eabi/12.2.0/../../../../arm-none-eabi/lib/libg.a(libc_a-fflush.o) (_impure_data)
/opt/devkitpro/devkitARM/bin/../lib/gcc/arm-none-eabi/12.2.0/../../../../arm-none-eabi/lib/libg.a(libc_a-errno.o)
                              /opt/devkitpro/devkitARM/bin/../lib/gcc/arm-none-eabi/12.2.0/../../../../arm-none-eabi/lib/libg.a(libc_a-callocr.o) (__errno)
/opt/devkitpro/devkitARM/bin/../lib/gcc/arm-none-eabi/12.2.0/../../../../arm-none-eabi/lib/libg.a(libc_a-init.o)
                              /opt/devkitpro/devkitARM/bin/../lib/gcc/arm-none-eabi/12.2.0/../../../../arm-none-eabi/lib/ds_arm9_crt0.o (__libc_init_array)
/opt/devkitpro/devkitARM/bin/../lib/gcc/arm-none-eabi/12.2.0/../../../../arm-none-eabi/lib/libg.a(libc_a-sysclose.o)
                              /opt/devkitpro/libnds/lib/libnds9.a(dldi.o) (close)
/opt/devkitpro/devkitARM/bin/../lib/gcc/arm-none-eabi/12.2.0/../../../../arm-none-eabi/lib/libg.a(libc_a-syslseek.o)
                              /opt/devkitpro/libnds/lib/libfilesystem.a(nitrofs.o) (lseek)
/opt/devkitpro/devkitARM/bin/../lib/gcc/arm-none-eabi/12.2.0/../../../../arm-none-eabi/lib/libg.a(libc_a-sysopen.o)
                              /opt/devkitpro/libnds/lib/libfilesystem.a(nitrofs.o) (open)
/opt/devkitpro/devkitARM/bin/../lib/gcc/arm-none-eabi/12.2.0/../../../../arm-none-eabi/lib/libg.a(libc_a-sysread.o)
                              /opt/devkitpro/libnds/lib/libfilesystem.a(nitrofs.o) (read)
/opt/devkitpro/devkitARM/bin/../lib/gcc/arm-none-eabi/12.2.0/../../../../arm-none-eabi/lib/libg.a(libc_a-access.o)
                              /opt/devkitpro/nflib/lib/libnflib.a(nf_basic.o) (access)
/opt/devkitpro/devkitARM/bin/../lib/gcc/arm-none-eabi/12.2.0/../../../../arm-none-eabi/lib/libg.a(libc_a-strcmp.o)
                              /opt/devkitpro/nflib/lib/libnflib.a(nf_basic.o) (strcmp)
/opt/devkitpro/devkitARM/bin/../lib/gcc/arm-none-eabi/12.2.0/../../../../arm-none-eabi/lib/libg.a(libc_a-strcpy.o)
                              /opt/devkitpro/libnds/lib/libfilesystem.a(nitrofs.o) (strcpy)
/opt/devkitpro/devkitARM/bin/../lib/gcc/arm-none-eabi/12.2.0/../../../../arm-none-eabi/lib/libg.a(libc_a-memchr-stub.o)
                              /opt/devkitpro/devkitARM/bin/../lib/gcc/arm-none-eabi/12.2.0/../../../../arm-none-eabi/lib/libg.a(libc_a-vfiprintf.o) (memchr)
/opt/devkitpro/devkitARM/bin/../lib/gcc/arm-none-eabi/12.2.0/../../../../arm-none-eabi/lib/libg.a(libc_a-memcpy-stub.o)
                              /opt/devkitpro/nflib/lib/libnflib.a(nf_basic.o) (memcpy)
/opt/devkitpro/devkitARM/bin/../lib/gcc/arm-none-eabi/12.2.0/../../../../arm-none-eabi/lib/libg.a(libc_a-div.o)
                              /opt/devkitpro/devkitARM/bin/../lib/gcc/arm-none-eabi/12.2.0/../../../../arm-none-eabi/lib/libg.a(libc_a-mktime.o) (div)
/opt/devkitpro/devkitARM/bin/../lib/gcc/arm-none-eabi/12.2.0/../../../../arm-none-eabi/lib/libg.a(libc_a-freer.o)
                              /opt/devkitpro/devkitARM/bin/../lib/gcc/arm-none-eabi/12.2.0/../../../../arm-none-eabi/lib/libg.a(libc_a-malloc.o) (_free_r)
/opt/devkitpro/devkitARM/bin/../lib/gcc/arm-none-eabi/12.2.0/../../../../arm-none-eabi/lib/libg.a(libc_a-getenv_r.o)
                              /opt/devkitpro/devkitARM/bin/../lib/gcc/arm-none-eabi/12.2.0/../../../../arm-none-eabi/lib/libg.a(libc_a-tzset_r.o) (_getenv_r)
/opt/devkitpro/devkitARM/bin/../lib/gcc/arm-none-eabi/12.2.0/../../../../arm-none-eabi/lib/libg.a(libc_a-mbtowc_r.o)
                              /opt/devkitpro/devkitARM/bin/../lib/gcc/arm-none-eabi/12.2.0/../../../../arm-none-eabi/lib/libg.a(libc_a-locale.o) (__ascii_mbtowc)
/opt/devkitpro/devkitARM/bin/../lib/gcc/arm-none-eabi/12.2.0/../../../../arm-none-eabi/lib/libg.a(libc_a-strtol.o)
                              /opt/devkitpro/devkitARM/bin/../lib/gcc/arm-none-eabi/12.2.0/../../../../arm-none-eabi/lib/libg.a(libc_a-svfiscanf.o) (_strtol_r)
/opt/devkitpro/devkitARM/bin/../lib/gcc/arm-none-eabi/12.2.0/../../../../arm-none-eabi/lib/libg.a(libc_a-strtoul.o)
                              /opt/devkitpro/devkitARM/bin/../lib/gcc/arm-none-eabi/12.2.0/../../../../arm-none-eabi/lib/libg.a(libc_a-svfiscanf.o) (_strtoul_r)
/opt/devkitpro/devkitARM/bin/../lib/gcc/arm-none-eabi/12.2.0/../../../../arm-none-eabi/lib/libg.a(libc_a-wctomb_r.o)
                              /opt/devkitpro/devkitARM/bin/../lib/gcc/arm-none-eabi/12.2.0/../../../../arm-none-eabi/lib/libg.a(libc_a-locale.o) (__ascii_wctomb)
/opt/devkitpro/devkitARM/bin/../lib/gcc/arm-none-eabi/12.2.0/../../../../arm-none-eabi/lib/libg.a(libc_a-strtoll.o)
                              /opt/devkitpro/devkitARM/bin/../lib/gcc/arm-none-eabi/12.2.0/../../../../arm-none-eabi/lib/libg.a(libc_a-svfiscanf.o) (_strtoll_r)
/opt/devkitpro/devkitARM/bin/../lib/gcc/arm-none-eabi/12.2.0/../../../../arm-none-eabi/lib/libg.a(libc_a-strtoull.o)
                              /opt/devkitpro/devkitARM/bin/../lib/gcc/arm-none-eabi/12.2.0/../../../../arm-none-eabi/lib/libg.a(libc_a-svfiscanf.o) (_strtoull_r)
/opt/devkitpro/devkitARM/bin/../lib/gcc/arm-none-eabi/12.2.0/../../../../arm-none-eabi/lib/libg.a(libc_a-malign.o)
                              /opt/devkitpro/devkitARM/bin/../lib/gcc/arm-none-eabi/12.2.0/../../../../arm-none-eabi/lib/libg.a(libc_a-setvbuf.o) (memalign)
/opt/devkitpro/devkitARM/bin/../lib/gcc/arm-none-eabi/12.2.0/../../../../arm-none-eabi/lib/libg.a(libc_a-malignr.o)
                              /opt/devkitpro/devkitARM/bin/../lib/gcc/arm-none-eabi/12.2.0/../../../../arm-none-eabi/lib/libg.a(libc_a-makebuf.o) (_memalign_r)
/opt/devkitpro/devkitARM/bin/../lib/gcc/arm-none-eabi/12.2.0/../../../../arm-none-eabi/lib/libg.a(libc_a-mbsnrtowcs.o)
                              /opt/devkitpro/devkitARM/bin/../lib/gcc/arm-none-eabi/12.2.0/../../../../arm-none-eabi/lib/libg.a(libc_a-mbsrtowcs.o) (_mbsnrtowcs_r)
/opt/devkitpro/devkitARM/bin/../lib/gcc/arm-none-eabi/12.2.0/../../../../arm-none-eabi/lib/libg.a(libc_a-wcsrtombs.o)
                              /opt/devkitpro/devkitARM/bin/../lib/gcc/arm-none-eabi/12.2.0/../../../../arm-none-eabi/lib/libg.a(libc_a-vfiprintf.o) (_wcsrtombs_r)
/opt/devkitpro/devkitARM/bin/../lib/gcc/arm-none-eabi/12.2.0/../../../../arm-none-eabi/lib/libg.a(libc_a-iswspace.o)
                              /opt/devkitpro/devkitARM/bin/../lib/gcc/arm-none-eabi/12.2.0/../../../../arm-none-eabi/lib/libg.a(libc_a-svfiscanf.o) (iswspace)
/opt/devkitpro/devkitARM/bin/../lib/gcc/arm-none-eabi/12.2.0/../../../../arm-none-eabi/lib/libg.a(libc_a-iswspace_l.o)
                              /opt/devkitpro/devkitARM/bin/../lib/gcc/arm-none-eabi/12.2.0/../../../../arm-none-eabi/lib/libg.a(libc_a-iswspace.o) (iswspace_l)
/opt/devkitpro/devkitARM/bin/../lib/gcc/arm-none-eabi/12.2.0/../../../../arm-none-eabi/lib/libg.a(libc_a-towctrans.o)
                              /opt/devkitpro/devkitARM/bin/../lib/gcc/arm-none-eabi/12.2.0/../../../../arm-none-eabi/lib/libg.a(libc_a-towlower.o) (towctrans)
/opt/devkitpro/devkitARM/bin/../lib/gcc/arm-none-eabi/12.2.0/../../../../arm-none-eabi/lib/libg.a(libc_a-towctrans_l.o)
                              /opt/devkitpro/devkitARM/bin/../lib/gcc/arm-none-eabi/12.2.0/../../../../arm-none-eabi/lib/libg.a(libc_a-towctrans.o) (towctrans_l)
/opt/devkitpro/devkitARM/bin/../lib/gcc/arm-none-eabi/12.2.0/../../../../arm-none-eabi/lib/libg.a(libc_a-svfiprintf.o)
                              /opt/devkitpro/devkitARM/bin/../lib/gcc/arm-none-eabi/12.2.0/../../../../arm-none-eabi/lib/libg.a(libc_a-vfiprintf.o) (__chclass)
/opt/devkitpro/devkitARM/bin/../lib/gcc/arm-none-eabi/12.2.0/../../../../arm-none-eabi/lib/libg.a(libc_a-svfprintf.o)
                              /opt/devkitpro/devkitARM/bin/../lib/gcc/arm-none-eabi/12.2.0/../../../../arm-none-eabi/lib/libg.a(libc_a-snprintf.o) (_svfprintf_r)
/opt/devkitpro/devkitARM/bin/../lib/gcc/arm-none-eabi/12.2.0/../../../../arm-none-eabi/lib/libg.a(libc_a-flags.o)
                              /opt/devkitpro/devkitARM/bin/../lib/gcc/arm-none-eabi/12.2.0/../../../../arm-none-eabi/lib/libg.a(libc_a-fopen.o) (__sflags)
/opt/devkitpro/devkitARM/bin/../lib/gcc/arm-none-eabi/12.2.0/../../../../arm-none-eabi/lib/libg.a(libc_a-strcat.o)
                              /opt/devkitpro/devkitARM/bin/../lib/gcc/arm-none-eabi/12.2.0/../../../../arm-none-eabi/lib/libg.a(libc_a-locale.o) (strcat)
/opt/devkitpro/devkitARM/bin/../lib/gcc/arm-none-eabi/12.2.0/../../../../arm-none-eabi/lib/libg.a(libc_a-strlcpy.o)
                              /opt/devkitpro/devkitARM/bin/../lib/gcc/arm-none-eabi/12.2.0/../../../../arm-none-eabi/lib/libg.a(libc_a-locale.o) (strlcpy)
/opt/devkitpro/devkitARM/bin/../lib/gcc/arm-none-eabi/12.2.0/../../../../arm-none-eabi/lib/libg.a(libc_a-gettzinfo.o)
                              /opt/devkitpro/devkitARM/bin/../lib/gcc/arm-none-eabi/12.2.0/../../../../arm-none-eabi/lib/libg.a(libc_a-lcltime_r.o) (__gettzinfo)
/opt/devkitpro/devkitARM/bin/../lib/gcc/arm-none-eabi/12.2.0/../../../../arm-none-eabi/lib/libg.a(libc_a-gmtime_r.o)
                              /opt/devkitpro/devkitARM/bin/../lib/gcc/arm-none-eabi/12.2.0/../../../../arm-none-eabi/lib/libg.a(libc_a-lcltime_r.o) (gmtime_r)
/opt/devkitpro/devkitARM/bin/../lib/gcc/arm-none-eabi/12.2.0/../../../../arm-none-eabi/lib/libg.a(libc_a-sysstat.o)
                              /opt/devkitpro/devkitARM/bin/../lib/gcc/arm-none-eabi/12.2.0/../../../../arm-none-eabi/lib/libg.a(libc_a-access.o) (stat)
/opt/devkitpro/devkitARM/bin/../lib/gcc/arm-none-eabi/12.2.0/../../../../arm-none-eabi/lib/libg.a(libm_a-s_frexp.o)
                              /opt/devkitpro/devkitARM/bin/../lib/gcc/arm-none-eabi/12.2.0/../../../../arm-none-eabi/lib/libg.a(libc_a-svfprintf.o) (frexp)
/opt/devkitpro/devkitARM/bin/../lib/gcc/arm-none-eabi/12.2.0/../../../../arm-none-eabi/lib/libg.a(libc_a-dtoa.o)
                              /opt/devkitpro/devkitARM/bin/../lib/gcc/arm-none-eabi/12.2.0/../../../../arm-none-eabi/lib/libg.a(libc_a-svfprintf.o) (_dtoa_r)
/opt/devkitpro/devkitARM/bin/../lib/gcc/arm-none-eabi/12.2.0/../../../../arm-none-eabi/lib/libg.a(libc_a-environ.o)
                              /opt/devkitpro/devkitARM/bin/../lib/gcc/arm-none-eabi/12.2.0/../../../../arm-none-eabi/lib/libg.a(libc_a-getenv_r.o) (environ)
/opt/devkitpro/devkitARM/bin/../lib/gcc/arm-none-eabi/12.2.0/../../../../arm-none-eabi/lib/libg.a(libc_a-envlock.o)
                              /opt/devkitpro/devkitARM/bin/../lib/gcc/arm-none-eabi/12.2.0/../../../../arm-none-eabi/lib/libg.a(libc_a-getenv_r.o) (__env_lock)
/opt/devkitpro/devkitARM/bin/../lib/gcc/arm-none-eabi/12.2.0/../../../../arm-none-eabi/lib/libg.a(libc_a-mprec.o)
                              /opt/devkitpro/devkitARM/bin/../lib/gcc/arm-none-eabi/12.2.0/../../../../arm-none-eabi/lib/libg.a(libc_a-dtoa.o) (_Balloc)
/opt/devkitpro/devkitARM/bin/../lib/gcc/arm-none-eabi/12.2.0/../../../../arm-none-eabi/lib/libg.a(libc_a-wcsnrtombs.o)
                              /opt/devkitpro/devkitARM/bin/../lib/gcc/arm-none-eabi/12.2.0/../../../../arm-none-eabi/lib/libg.a(libc_a-wcsrtombs.o) (_wcsnrtombs_r)
/opt/devkitpro/devkitARM/bin/../lib/gcc/arm-none-eabi/12.2.0/../../../../arm-none-eabi/lib/libg.a(libc_a-categories.o)
                              /opt/devkitpro/devkitARM/bin/../lib/gcc/arm-none-eabi/12.2.0/../../../../arm-none-eabi/lib/libg.a(libc_a-iswspace_l.o) (category)
/opt/devkitpro/devkitARM/bin/../lib/gcc/arm-none-eabi/12.2.0/../../../../arm-none-eabi/lib/libg.a(libc_a-assert.o)
                              /opt/devkitpro/devkitARM/bin/../lib/gcc/arm-none-eabi/12.2.0/../../../../arm-none-eabi/lib/libg.a(libc_a-dtoa.o) (__assert_func)
/opt/devkitpro/devkitARM/bin/../lib/gcc/arm-none-eabi/12.2.0/../../../../arm-none-eabi/lib/libg.a(libc_a-fiprintf.o)
                              /opt/devkitpro/devkitARM/bin/../lib/gcc/arm-none-eabi/12.2.0/../../../../arm-none-eabi/lib/libg.a(libc_a-assert.o) (fiprintf)
/opt/devkitpro/devkitARM/bin/../lib/gcc/arm-none-eabi/12.2.0/../../../../arm-none-eabi/lib/libg.a(libc_a-abort.o)
                              /opt/devkitpro/devkitARM/bin/../lib/gcc/arm-none-eabi/12.2.0/../../../../arm-none-eabi/lib/libg.a(libc_a-assert.o) (abort)
/opt/devkitpro/devkitARM/bin/../lib/gcc/arm-none-eabi/12.2.0/../../../../arm-none-eabi/lib/libg.a(libc_a-signal.o)
                              /opt/devkitpro/devkitARM/bin/../lib/gcc/arm-none-eabi/12.2.0/../../../../arm-none-eabi/lib/libg.a(libc_a-abort.o) (raise)
/opt/devkitpro/devkitARM/bin/../lib/gcc/arm-none-eabi/12.2.0/../../../../arm-none-eabi/lib/libsysbase.a(libsysbase_libsysbase_a-_exit.o)
                              /opt/devkitpro/devkitARM/bin/../lib/gcc/arm-none-eabi/12.2.0/../../../../arm-none-eabi/lib/libg.a(libc_a-abort.o) (_exit)
/opt/devkitpro/devkitARM/bin/../lib/gcc/arm-none-eabi/12.2.0/../../../../arm-none-eabi/lib/libsysbase.a(libsysbase_libsysbase_a-build_argv.o)
                              /opt/devkitpro/devkitARM/bin/../lib/gcc/arm-none-eabi/12.2.0/../../../../arm-none-eabi/lib/ds_arm9_crt0.o (build_argv)
/opt/devkitpro/devkitARM/bin/../lib/gcc/arm-none-eabi/12.2.0/../../../../arm-none-eabi/lib/libsysbase.a(libsysbase_libsysbase_a-chdir.o)
                              /opt/devkitpro/nflib/lib/libnflib.a(nf_basic.o) (chdir)
/opt/devkitpro/devkitARM/bin/../lib/gcc/arm-none-eabi/12.2.0/../../../../arm-none-eabi/lib/libsysbase.a(libsysbase_libsysbase_a-fstat.o)
                              /opt/devkitpro/devkitARM/bin/../lib/gcc/arm-none-eabi/12.2.0/../../../../arm-none-eabi/lib/libg.a(libc_a-makebuf.o) (_fstat_r)
/opt/devkitpro/devkitARM/bin/../lib/gcc/arm-none-eabi/12.2.0/../../../../arm-none-eabi/lib/libsysbase.a(libsysbase_libsysbase_a-getpid.o)
                              /opt/devkitpro/devkitARM/bin/../lib/gcc/arm-none-eabi/12.2.0/../../../../arm-none-eabi/lib/libg.a(libc_a-signal.o) (_getpid_r)
/opt/devkitpro/devkitARM/bin/../lib/gcc/arm-none-eabi/12.2.0/../../../../arm-none-eabi/lib/libsysbase.a(libsysbase_libsysbase_a-getreent.o)
                              /opt/devkitpro/libnds/lib/libnds9.a(console.o) (__getreent)
/opt/devkitpro/devkitARM/bin/../lib/gcc/arm-none-eabi/12.2.0/../../../../arm-none-eabi/lib/libsysbase.a(libsysbase_libsysbase_a-gettod.o)
                              /opt/devkitpro/devkitARM/bin/../lib/gcc/arm-none-eabi/12.2.0/../../../../arm-none-eabi/lib/libg.a(libc_a-time.o) (_gettimeofday_r)
/opt/devkitpro/devkitARM/bin/../lib/gcc/arm-none-eabi/12.2.0/../../../../arm-none-eabi/lib/libsysbase.a(libsysbase_libsysbase_a-handle_manager.o)
                              /opt/devkitpro/devkitARM/bin/../lib/gcc/arm-none-eabi/12.2.0/../../../../arm-none-eabi/lib/libsysbase.a(libsysbase_libsysbase_a-fstat.o) (__get_handle)
/opt/devkitpro/devkitARM/bin/../lib/gcc/arm-none-eabi/12.2.0/../../../../arm-none-eabi/lib/libsysbase.a(libsysbase_libsysbase_a-iosupport.o)
                              /opt/devkitpro/devkitARM/bin/../lib/gcc/arm-none-eabi/12.2.0/../../../../arm-none-eabi/lib/libsysbase.a(libsysbase_libsysbase_a-chdir.o) (setDefaultDevice)
/opt/devkitpro/devkitARM/bin/../lib/gcc/arm-none-eabi/12.2.0/../../../../arm-none-eabi/lib/libsysbase.a(libsysbase_libsysbase_a-isatty.o)
                              /opt/devkitpro/devkitARM/bin/../lib/gcc/arm-none-eabi/12.2.0/../../../../arm-none-eabi/lib/libg.a(libc_a-makebuf.o) (_isatty_r)
/opt/devkitpro/devkitARM/bin/../lib/gcc/arm-none-eabi/12.2.0/../../../../arm-none-eabi/lib/libsysbase.a(libsysbase_libsysbase_a-kill.o)
                              /opt/devkitpro/devkitARM/bin/../lib/gcc/arm-none-eabi/12.2.0/../../../../arm-none-eabi/lib/libg.a(libc_a-signal.o) (_kill_r)
/opt/devkitpro/devkitARM/bin/../lib/gcc/arm-none-eabi/12.2.0/../../../../arm-none-eabi/lib/libsysbase.a(libsysbase_libsysbase_a-lseek.o)
                              /opt/devkitpro/devkitARM/bin/../lib/gcc/arm-none-eabi/12.2.0/../../../../arm-none-eabi/lib/libg.a(libc_a-stdio.o) (_lseek_r)
/opt/devkitpro/devkitARM/bin/../lib/gcc/arm-none-eabi/12.2.0/../../../../arm-none-eabi/lib/libsysbase.a(libsysbase_libsysbase_a-malloc_vars.o)
                              /opt/devkitpro/devkitARM/bin/../lib/gcc/arm-none-eabi/12.2.0/../../../../arm-none-eabi/lib/ds_arm9_crt0.o (fake_heap_start)
/opt/devkitpro/devkitARM/bin/../lib/gcc/arm-none-eabi/12.2.0/../../../../arm-none-eabi/lib/libsysbase.a(libsysbase_libsysbase_a-open.o)
                              /opt/devkitpro/devkitARM/bin/../lib/gcc/arm-none-eabi/12.2.0/../../../../arm-none-eabi/lib/libg.a(libc_a-fopen.o) (_open_r)
/opt/devkitpro/devkitARM/bin/../lib/gcc/arm-none-eabi/12.2.0/../../../../arm-none-eabi/lib/libsysbase.a(libsysbase_libsysbase_a-read.o)
                              /opt/devkitpro/devkitARM/bin/../lib/gcc/arm-none-eabi/12.2.0/../../../../arm-none-eabi/lib/libg.a(libc_a-stdio.o) (_read_r)
/opt/devkitpro/devkitARM/bin/../lib/gcc/arm-none-eabi/12.2.0/../../../../arm-none-eabi/lib/libsysbase.a(libsysbase_libsysbase_a-sbrk.o)
                              /opt/devkitpro/devkitARM/bin/../lib/gcc/arm-none-eabi/12.2.0/../../../../arm-none-eabi/lib/libg.a(libc_a-mallocr.o) (_sbrk_r)
/opt/devkitpro/devkitARM/bin/../lib/gcc/arm-none-eabi/12.2.0/../../../../arm-none-eabi/lib/libsysbase.a(libsysbase_libsysbase_a-stat.o)
                              /opt/devkitpro/devkitARM/bin/../lib/gcc/arm-none-eabi/12.2.0/../../../../arm-none-eabi/lib/libg.a(libc_a-sysstat.o) (_stat_r)
/opt/devkitpro/devkitARM/bin/../lib/gcc/arm-none-eabi/12.2.0/../../../../arm-none-eabi/lib/libsysbase.a(libsysbase_libsysbase_a-syscall_support.o)
                              /opt/devkitpro/devkitARM/bin/../lib/gcc/arm-none-eabi/12.2.0/../../../../arm-none-eabi/lib/libg.a(libc_a-tzlock.o) (__libc_lock_acquire)
/opt/devkitpro/devkitARM/bin/../lib/gcc/arm-none-eabi/12.2.0/../../../../arm-none-eabi/lib/libsysbase.a(libsysbase_libsysbase_a-write.o)
                              /opt/devkitpro/devkitARM/bin/../lib/gcc/arm-none-eabi/12.2.0/../../../../arm-none-eabi/lib/libg.a(libc_a-stdio.o) (_write_r)
/opt/devkitpro/devkitARM/bin/../lib/gcc/arm-none-eabi/12.2.0/../../../../arm-none-eabi/lib/libsysbase.a(libsysbase_libsysbase_a-clocks.o)
                              /opt/devkitpro/devkitARM/bin/../lib/gcc/arm-none-eabi/12.2.0/../../../../arm-none-eabi/lib/libsysbase.a(libsysbase_libsysbase_a-syscall_support.o) (clock_gettime)
/opt/devkitpro/devkitARM/bin/../lib/gcc/arm-none-eabi/12.2.0/libgcc.a(_arm_muldf3.o)
                              /opt/devkitpro/devkitARM/bin/../lib/gcc/arm-none-eabi/12.2.0/../../../../arm-none-eabi/lib/libg.a(libc_a-svfprintf.o) (__aeabi_dmul)
/opt/devkitpro/devkitARM/bin/../lib/gcc/arm-none-eabi/12.2.0/libgcc.a(_arm_addsubdf3.o)
                              /opt/devkitpro/devkitARM/bin/../lib/gcc/arm-none-eabi/12.2.0/../../../../arm-none-eabi/lib/libg.a(libc_a-svfprintf.o) (__aeabi_dsub)
/opt/devkitpro/devkitARM/bin/../lib/gcc/arm-none-eabi/12.2.0/libgcc.a(_arm_muldivdf3.o)
                              /opt/devkitpro/devkitARM/bin/../lib/gcc/arm-none-eabi/12.2.0/../../../../arm-none-eabi/lib/libg.a(libc_a-dtoa.o) (__aeabi_ddiv)
/opt/devkitpro/devkitARM/bin/../lib/gcc/arm-none-eabi/12.2.0/libgcc.a(_arm_cmpdf2.o)
                              /opt/devkitpro/devkitARM/bin/../lib/gcc/arm-none-eabi/12.2.0/../../../../arm-none-eabi/lib/libg.a(libc_a-svfprintf.o) (__aeabi_dcmpeq)
/opt/devkitpro/devkitARM/bin/../lib/gcc/arm-none-eabi/12.2.0/libgcc.a(_arm_unorddf2.o)
                              /opt/devkitpro/devkitARM/bin/../lib/gcc/arm-none-eabi/12.2.0/../../../../arm-none-eabi/lib/libg.a(libc_a-svfprintf.o) (__aeabi_dcmpun)
/opt/devkitpro/devkitARM/bin/../lib/gcc/arm-none-eabi/12.2.0/libgcc.a(_arm_fixdfsi.o)
                              /opt/devkitpro/devkitARM/bin/../lib/gcc/arm-none-eabi/12.2.0/../../../../arm-none-eabi/lib/libg.a(libc_a-svfprintf.o) (__aeabi_d2iz)
/opt/devkitpro/devkitARM/bin/../lib/gcc/arm-none-eabi/12.2.0/libgcc.a(_aeabi_uldivmod.o)
                              /opt/devkitpro/devkitARM/bin/../lib/gcc/arm-none-eabi/12.2.0/../../../../arm-none-eabi/lib/libg.a(libc_a-vfiprintf.o) (__aeabi_uldivmod)

Discarded input sections

 .text          0x00000000        0x0 /opt/devkitpro/devkitARM/bin/../lib/gcc/arm-none-eabi/12.2.0/../../../../arm-none-eabi/lib/ds_arm9_crt0.o
 .data          0x00000000        0x0 /opt/devkitpro/devkitARM/bin/../lib/gcc/arm-none-eabi/12.2.0/../../../../arm-none-eabi/lib/ds_arm9_crt0.o
 .bss           0x00000000        0x0 /opt/devkitpro/devkitARM/bin/../lib/gcc/arm-none-eabi/12.2.0/../../../../arm-none-eabi/lib/ds_arm9_crt0.o
 .text          0x00000000        0x0 /opt/devkitpro/devkitARM/bin/../lib/gcc/arm-none-eabi/12.2.0/crti.o
 .data          0x00000000        0x0 /opt/devkitpro/devkitARM/bin/../lib/gcc/arm-none-eabi/12.2.0/crti.o
 .bss           0x00000000        0x0 /opt/devkitpro/devkitARM/bin/../lib/gcc/arm-none-eabi/12.2.0/crti.o
 .text          0x00000000        0x0 /opt/devkitpro/devkitARM/bin/../lib/gcc/arm-none-eabi/12.2.0/crtbegin.o
 .data          0x00000000        0x0 /opt/devkitpro/devkitARM/bin/../lib/gcc/arm-none-eabi/12.2.0/crtbegin.o
 .bss           0x00000000        0x0 /opt/devkitpro/devkitARM/bin/../lib/gcc/arm-none-eabi/12.2.0/crtbegin.o
 .rodata.all_implied_fbits
                0x00000000       0x24 /opt/devkitpro/devkitARM/bin/../lib/gcc/arm-none-eabi/12.2.0/crtbegin.o
 .data.__dso_handle
                0x00000000        0x4 /opt/devkitpro/devkitARM/bin/../lib/gcc/arm-none-eabi/12.2.0/crtbegin.o
 .text          0x00000000        0x0 main.o
 .data          0x00000000        0x0 main.o
 .bss           0x00000000        0x0 main.o
 .data          0x00000000        0x0 /opt/devkitpro/nflib/lib/libnflib.a(nf_2d.o)
 .bss           0x00000000        0x0 /opt/devkitpro/nflib/lib/libnflib.a(nf_2d.o)
 .data          0x00000000        0x0 /opt/devkitpro/nflib/lib/libnflib.a(nf_basic.o)
 .text          0x00000000      0xf80 /opt/devkitpro/nflib/lib/libnflib.a(nf_sprite256.o)
 .data          0x00000000        0x0 /opt/devkitpro/nflib/lib/libnflib.a(nf_sprite256.o)
 .rodata.str1.4
                0x00000000       0x87 /opt/devkitpro/nflib/lib/libnflib.a(nf_sprite256.o)
 .rodata        0x00000000       0x90 /opt/devkitpro/nflib/lib/libnflib.a(nf_sprite256.o)
 .data          0x00000000        0x0 /opt/devkitpro/nflib/lib/libnflib.a(nf_tiledbg.o)
 .text          0x00000000        0x0 /opt/devkitpro/libnds/lib/libfilesystem.a(nitrofs.o)
 .data          0x00000000        0x0 /opt/devkitpro/libnds/lib/libfilesystem.a(nitrofs.o)
 .bss           0x00000000        0x0 /opt/devkitpro/libnds/lib/libfilesystem.a(nitrofs.o)
 .text          0x00000000        0x0 /opt/devkitpro/libnds/lib/libfat.a(libfat.o)
 .data          0x00000000        0x0 /opt/devkitpro/libnds/lib/libfat.a(libfat.o)
 .bss           0x00000000        0x0 /opt/devkitpro/libnds/lib/libfat.a(libfat.o)
 .text.fatMountSimple
                0x00000000       0x38 /opt/devkitpro/libnds/lib/libfat.a(libfat.o)
 .text.fatUnmount
                0x00000000       0x34 /opt/devkitpro/libnds/lib/libfat.a(libfat.o)
 .rodata.fatGetVolumeLabel.str1.4
                0x00000000        0x8 /opt/devkitpro/libnds/lib/libfat.a(libfat.o)
 .text.fatGetVolumeLabel
                0x00000000       0xd8 /opt/devkitpro/libnds/lib/libfat.a(libfat.o)
 .text          0x00000000        0x0 /opt/devkitpro/libnds/lib/libfat.a(disc.o)
 .data          0x00000000        0x0 /opt/devkitpro/libnds/lib/libfat.a(disc.o)
 .bss           0x00000000        0x0 /opt/devkitpro/libnds/lib/libfat.a(disc.o)
 .text          0x00000000        0x0 /opt/devkitpro/libnds/lib/libfat.a(fatfile.o)
 .data          0x00000000        0x0 /opt/devkitpro/libnds/lib/libfat.a(fatfile.o)
 .bss           0x00000000        0x0 /opt/devkitpro/libnds/lib/libfat.a(fatfile.o)
 .text._FAT_findEntry
                0x00000000       0x5c /opt/devkitpro/libnds/lib/libfat.a(fatfile.o)
 .text.FAT_getAttr
                0x00000000       0x1c /opt/devkitpro/libnds/lib/libfat.a(fatfile.o)
 .text.FAT_setAttr
                0x00000000       0xa0 /opt/devkitpro/libnds/lib/libfat.a(fatfile.o)
 .text._FAT_syncToDisc
                0x00000000       0x18 /opt/devkitpro/libnds/lib/libfat.a(fatfile.o)
 .text          0x00000000        0x0 /opt/devkitpro/libnds/lib/libfat.a(cache.o)
 .data          0x00000000        0x0 /opt/devkitpro/libnds/lib/libfat.a(cache.o)
 .bss           0x00000000        0x0 /opt/devkitpro/libnds/lib/libfat.a(cache.o)
 .text._FAT_cache_destructor
                0x00000000       0x34 /opt/devkitpro/libnds/lib/libfat.a(cache.o)
 .text._FAT_cache_invalidate
                0x00000000       0x30 /opt/devkitpro/libnds/lib/libfat.a(cache.o)
 .text          0x00000000        0x0 /opt/devkitpro/libnds/lib/libfat.a(fatdir.o)
 .data          0x00000000        0x0 /opt/devkitpro/libnds/lib/libfat.a(fatdir.o)
 .bss           0x00000000        0x0 /opt/devkitpro/libnds/lib/libfat.a(fatdir.o)
 .text          0x00000000        0x0 /opt/devkitpro/libnds/lib/libfat.a(directory.o)
 .data          0x00000000        0x0 /opt/devkitpro/libnds/lib/libfat.a(directory.o)
 .bss           0x00000000        0x0 /opt/devkitpro/libnds/lib/libfat.a(directory.o)
 .text._FAT_directory_getVolumeLabel
                0x00000000       0xf4 /opt/devkitpro/libnds/lib/libfat.a(directory.o)
 .text          0x00000000        0x0 /opt/devkitpro/libnds/lib/libfat.a(partition.o)
 .data          0x00000000        0x0 /opt/devkitpro/libnds/lib/libfat.a(partition.o)
 .bss           0x00000000        0x0 /opt/devkitpro/libnds/lib/libfat.a(partition.o)
 .text._FAT_partition_writeFSinfo.part.0
                0x00000000       0x60 /opt/devkitpro/libnds/lib/libfat.a(partition.o)
 .text.FindFirstValidPartition_buf
                0x00000000       0x24 /opt/devkitpro/libnds/lib/libfat.a(partition.o)
 .text.FindFirstValidPartition
                0x00000000       0x3c /opt/devkitpro/libnds/lib/libfat.a(partition.o)
 .text._FAT_partition_destructor
                0x00000000       0x48 /opt/devkitpro/libnds/lib/libfat.a(partition.o)
 .text._FAT_partition_writeFSinfo
                0x00000000       0x10 /opt/devkitpro/libnds/lib/libfat.a(partition.o)
 .text._FAT_getCwdClusterPtr
                0x00000000       0x14 /opt/devkitpro/libnds/lib/libfat.a(partition.o)
 .text          0x00000000        0x0 /opt/devkitpro/libnds/lib/libfat.a(lock.o)
 .data          0x00000000        0x0 /opt/devkitpro/libnds/lib/libfat.a(lock.o)
 .bss           0x00000000        0x0 /opt/devkitpro/libnds/lib/libfat.a(lock.o)
 .text._FAT_lock_deinit
                0x00000000        0x4 /opt/devkitpro/libnds/lib/libfat.a(lock.o)
 .text          0x00000000        0x0 /opt/devkitpro/libnds/lib/libfat.a(filetime.o)
 .data          0x00000000        0x0 /opt/devkitpro/libnds/lib/libfat.a(filetime.o)
 .bss           0x00000000        0x0 /opt/devkitpro/libnds/lib/libfat.a(filetime.o)
 .text          0x00000000        0x0 /opt/devkitpro/libnds/lib/libfat.a(file_allocation_table.o)
 .data          0x00000000        0x0 /opt/devkitpro/libnds/lib/libfat.a(file_allocation_table.o)
 .bss           0x00000000        0x0 /opt/devkitpro/libnds/lib/libfat.a(file_allocation_table.o)
 .text          0x00000000        0x0 /opt/devkitpro/libnds/lib/libnds9.a(video.o)
 .data          0x00000000        0x0 /opt/devkitpro/libnds/lib/libnds9.a(video.o)
 .bss           0x00000000        0x0 /opt/devkitpro/libnds/lib/libnds9.a(video.o)
 .text.vramSetPrimaryBanks
                0x00000000       0x44 /opt/devkitpro/libnds/lib/libnds9.a(video.o)
 .text.vramSetMainBanks
                0x00000000       0x44 /opt/devkitpro/libnds/lib/libnds9.a(video.o)
 .text.vramSetBanks_EFG
                0x00000000       0x38 /opt/devkitpro/libnds/lib/libnds9.a(video.o)
 .text.vramRestorePrimaryBanks
                0x00000000        0xc /opt/devkitpro/libnds/lib/libnds9.a(video.o)
 .text.vramRestoreMainBanks
                0x00000000        0xc /opt/devkitpro/libnds/lib/libnds9.a(video.o)
 .text.vramRestoreBanks_EFG
                0x00000000        0xc /opt/devkitpro/libnds/lib/libnds9.a(video.o)
 .text          0x00000000        0x0 /opt/devkitpro/libnds/lib/libnds9.a(console.o)
 .data          0x00000000        0x0 /opt/devkitpro/libnds/lib/libnds9.a(console.o)
 .bss           0x00000000        0x0 /opt/devkitpro/libnds/lib/libnds9.a(console.o)
 .text.nocash_write
                0x00000000       0x10 /opt/devkitpro/libnds/lib/libnds9.a(console.o)
 .text.consoleGetDefault
                0x00000000        0x8 /opt/devkitpro/libnds/lib/libnds9.a(console.o)
 .text.consoleSelect
                0x00000000       0x10 /opt/devkitpro/libnds/lib/libnds9.a(console.o)
 .text.consoleDebugInit
                0x00000000       0x50 /opt/devkitpro/libnds/lib/libnds9.a(console.o)
 .text.consoleSetFont
                0x00000000       0x20 /opt/devkitpro/libnds/lib/libnds9.a(console.o)
 .rodata.consoleClear.str1.4
                0x00000000        0x5 /opt/devkitpro/libnds/lib/libnds9.a(console.o)
 .text.consoleClear
                0x00000000       0x10 /opt/devkitpro/libnds/lib/libnds9.a(console.o)
 .text.consoleSetWindow
                0x00000000       0x20 /opt/devkitpro/libnds/lib/libnds9.a(console.o)
 .rodata.dotab_nocash
                0x00000000       0x70 /opt/devkitpro/libnds/lib/libnds9.a(console.o)
 .rodata.dotab_null
                0x00000000       0x70 /opt/devkitpro/libnds/lib/libnds9.a(console.o)
 .text          0x00000000        0x0 /opt/devkitpro/libnds/lib/libnds9.a(sprite.o)
 .data          0x00000000        0x0 /opt/devkitpro/libnds/lib/libnds9.a(sprite.o)
 .bss           0x00000000        0x0 /opt/devkitpro/libnds/lib/libnds9.a(sprite.o)
 .text.oamInit  0x00000000      0x114 /opt/devkitpro/libnds/lib/libnds9.a(sprite.o)
 .text.oamDisable
                0x00000000       0x2c /opt/devkitpro/libnds/lib/libnds9.a(sprite.o)
 .text.oamEnable
                0x00000000       0x24 /opt/devkitpro/libnds/lib/libnds9.a(sprite.o)
 .text.oamGetGfxPtr
                0x00000000       0x38 /opt/devkitpro/libnds/lib/libnds9.a(sprite.o)
 .text.oamClear
                0x00000000       0x24 /opt/devkitpro/libnds/lib/libnds9.a(sprite.o)
 .text.oamGfxPtrToOffset
                0x00000000       0x34 /opt/devkitpro/libnds/lib/libnds9.a(sprite.o)
 .text.oamSet   0x00000000      0x104 /opt/devkitpro/libnds/lib/libnds9.a(sprite.o)
 .text.oamUpdate
                0x00000000       0x60 /opt/devkitpro/libnds/lib/libnds9.a(sprite.o)
 .text          0x00000000        0x0 /opt/devkitpro/libnds/lib/libnds9.a(keys.o)
 .data          0x00000000        0x0 /opt/devkitpro/libnds/lib/libnds9.a(keys.o)
 .bss           0x00000000        0x0 /opt/devkitpro/libnds/lib/libnds9.a(keys.o)
 .text.keysHeld
                0x00000000        0xc /opt/devkitpro/libnds/lib/libnds9.a(keys.o)
 .text.keysDownRepeat
                0x00000000       0x10 /opt/devkitpro/libnds/lib/libnds9.a(keys.o)
 .text.keysSetRepeat
                0x00000000       0x24 /opt/devkitpro/libnds/lib/libnds9.a(keys.o)
 .text.keysUp   0x00000000       0x18 /opt/devkitpro/libnds/lib/libnds9.a(keys.o)
 .text.keysCurrent
                0x00000000       0x38 /opt/devkitpro/libnds/lib/libnds9.a(keys.o)
 .text          0x00000000        0x0 /opt/devkitpro/libnds/lib/libnds9.a(dldi.o)
 .data          0x00000000        0x0 /opt/devkitpro/libnds/lib/libnds9.a(dldi.o)
 .bss           0x00000000        0x0 /opt/devkitpro/libnds/lib/libnds9.a(dldi.o)
 .text.dldiIsValid
                0x00000000       0x3c /opt/devkitpro/libnds/lib/libnds9.a(dldi.o)
 .text.dldiFixDriverAddresses
                0x00000000       0xd4 /opt/devkitpro/libnds/lib/libnds9.a(dldi.o)
 .text.dldiLoadFromFile
                0x00000000       0xec /opt/devkitpro/libnds/lib/libnds9.a(dldi.o)
 .text.dldiFree
                0x00000000        0x8 /opt/devkitpro/libnds/lib/libnds9.a(dldi.o)
 .data.io_dldi_data
                0x00000000        0x4 /opt/devkitpro/libnds/lib/libnds9.a(dldi.o)
 .rodata.DLDI_MAGIC_NUMBER
                0x00000000        0x4 /opt/devkitpro/libnds/lib/libnds9.a(dldi.o)
 .rodata.DLDI_MAGIC_STRING_BACKWARDS
                0x00000000        0x8 /opt/devkitpro/libnds/lib/libnds9.a(dldi.o)
 .text          0x00000000        0x0 /opt/devkitpro/libnds/lib/libnds9.a(initSystem.o)
 .data          0x00000000        0x0 /opt/devkitpro/libnds/lib/libnds9.a(initSystem.o)
 .bss           0x00000000        0x0 /opt/devkitpro/libnds/lib/libnds9.a(initSystem.o)
 .text          0x00000000        0x0 /opt/devkitpro/libnds/lib/libnds9.a(securearea.o)
 .data          0x00000000        0x0 /opt/devkitpro/libnds/lib/libnds9.a(securearea.o)
 .bss           0x00000000        0x0 /opt/devkitpro/libnds/lib/libnds9.a(securearea.o)
 .text          0x00000000        0x0 /opt/devkitpro/libnds/lib/libnds9.a(interrupts.o)
 .data          0x00000000        0x0 /opt/devkitpro/libnds/lib/libnds9.a(interrupts.o)
 .bss           0x00000000        0x0 /opt/devkitpro/libnds/lib/libnds9.a(interrupts.o)
 .text.irqInitHandler
                0x00000000       0x28 /opt/devkitpro/libnds/lib/libnds9.a(interrupts.o)
 .text.irqDisable
                0x00000000       0x64 /opt/devkitpro/libnds/lib/libnds9.a(interrupts.o)
 .text.irqClear
                0x00000000       0x38 /opt/devkitpro/libnds/lib/libnds9.a(interrupts.o)
 .text          0x00000000        0x0 /opt/devkitpro/libnds/lib/libnds9.a(libnds_exit.arm.o)
 .data          0x00000000        0x0 /opt/devkitpro/libnds/lib/libnds9.a(libnds_exit.arm.o)
 .bss           0x00000000        0x0 /opt/devkitpro/libnds/lib/libnds9.a(libnds_exit.arm.o)
 .text          0x00000000        0x0 /opt/devkitpro/libnds/lib/libnds9.a(card.o)
 .data          0x00000000        0x0 /opt/devkitpro/libnds/lib/libnds9.a(card.o)
 .bss           0x00000000        0x0 /opt/devkitpro/libnds/lib/libnds9.a(card.o)
 .text.cardWriteCommand
                0x00000000       0x28 /opt/devkitpro/libnds/lib/libnds9.a(card.o)
 .text.cardStartTransfer
                0x00000000       0x68 /opt/devkitpro/libnds/lib/libnds9.a(card.o)
 .text.cardWriteAndRead
                0x00000000       0x48 /opt/devkitpro/libnds/lib/libnds9.a(card.o)
 .text.cardReadID
                0x00000000       0x5c /opt/devkitpro/libnds/lib/libnds9.a(card.o)
 .text.cardReset
                0x00000000       0x6c /opt/devkitpro/libnds/lib/libnds9.a(card.o)
 .text.cardReadHeader
                0x00000000       0x9c /opt/devkitpro/libnds/lib/libnds9.a(card.o)
 .rodata        0x00000000       0x10 /opt/devkitpro/libnds/lib/libnds9.a(card.o)
 .text          0x00000000        0x0 /opt/devkitpro/libnds/lib/libnds9.a(fifosystem.o)
 .data          0x00000000        0x0 /opt/devkitpro/libnds/lib/libnds9.a(fifosystem.o)
 .bss           0x00000000        0x0 /opt/devkitpro/libnds/lib/libnds9.a(fifosystem.o)
 .text.fifoSendAddress
                0x00000000       0x38 /opt/devkitpro/libnds/lib/libnds9.a(fifosystem.o)
 .text.fifoGetAddress
                0x00000000       0x7c /opt/devkitpro/libnds/lib/libnds9.a(fifosystem.o)
 .text.fifoSetAddressHandler
                0x00000000       0x78 /opt/devkitpro/libnds/lib/libnds9.a(fifosystem.o)
 .text.fifoCheckAddress
                0x00000000       0x24 /opt/devkitpro/libnds/lib/libnds9.a(fifosystem.o)
 .text.fifoCheckDatamsg
                0x00000000       0x24 /opt/devkitpro/libnds/lib/libnds9.a(fifosystem.o)
 .text.fifoCheckDatamsgLength
                0x00000000       0x30 /opt/devkitpro/libnds/lib/libnds9.a(fifosystem.o)
 .text          0x00000000        0x0 /opt/devkitpro/libnds/lib/libnds9.a(dcache.o)
 .data          0x00000000        0x0 /opt/devkitpro/libnds/lib/libnds9.a(dcache.o)
 .bss           0x00000000        0x0 /opt/devkitpro/libnds/lib/libnds9.a(dcache.o)
 .text.DC_FlushAll
                0x00000000       0x2c /opt/devkitpro/libnds/lib/libnds9.a(dcache.o)
 .text.DC_InvalidateAll
                0x00000000        0xc /opt/devkitpro/libnds/lib/libnds9.a(dcache.o)
 .data          0x00000000        0x0 /opt/devkitpro/libnds/lib/libnds9.a(dldi_stub.o)
 .bss           0x00000000        0x0 /opt/devkitpro/libnds/lib/libnds9.a(dldi_stub.o)
 .text          0x00000000        0x0 /opt/devkitpro/libnds/lib/libnds9.a(mpu_setup.o)
 .bss           0x00000000        0x0 /opt/devkitpro/libnds/lib/libnds9.a(mpu_setup.o)
 .text.memCached
                0x00000000       0x20 /opt/devkitpro/libnds/lib/libnds9.a(mpu_setup.o)
 .text          0x00000000        0x0 /opt/devkitpro/libnds/lib/libnds9.a(IntrWait.o)
 .data          0x00000000        0x0 /opt/devkitpro/libnds/lib/libnds9.a(IntrWait.o)
 .bss           0x00000000        0x0 /opt/devkitpro/libnds/lib/libnds9.a(IntrWait.o)
 .text          0x00000000        0x0 /opt/devkitpro/libnds/lib/libnds9.a(cpu_clock.o)
 .data          0x00000000        0x0 /opt/devkitpro/libnds/lib/libnds9.a(cpu_clock.o)
 .bss           0x00000000        0x0 /opt/devkitpro/libnds/lib/libnds9.a(cpu_clock.o)
 .itcm          0x00000000        0x0 /opt/devkitpro/libnds/lib/libnds9.a(cpu_clock.o)
 .text          0x00000000        0x0 /opt/devkitpro/libnds/lib/libnds9.a(interruptDispatcher.o)
 .data          0x00000000        0x0 /opt/devkitpro/libnds/lib/libnds9.a(interruptDispatcher.o)
 .bss           0x00000000        0x0 /opt/devkitpro/libnds/lib/libnds9.a(interruptDispatcher.o)
 .text          0x00000000        0x0 /opt/devkitpro/libnds/lib/libnds9.a(biosCalls.o)
 .data          0x00000000        0x0 /opt/devkitpro/libnds/lib/libnds9.a(biosCalls.o)
 .bss           0x00000000        0x0 /opt/devkitpro/libnds/lib/libnds9.a(biosCalls.o)
 .text.swiSleep
                0x00000000        0x4 /opt/devkitpro/libnds/lib/libnds9.a(biosCalls.o)
 .text.swiChangeSoundBias
                0x00000000        0x4 /opt/devkitpro/libnds/lib/libnds9.a(biosCalls.o)
 .text.swiDivide
                0x00000000        0x4 /opt/devkitpro/libnds/lib/libnds9.a(biosCalls.o)
 .text.swiRemainder
                0x00000000        0x8 /opt/devkitpro/libnds/lib/libnds9.a(biosCalls.o)
 .text.swiDivMod
                0x00000000        0xc /opt/devkitpro/libnds/lib/libnds9.a(biosCalls.o)
 .text.swiCopy  0x00000000        0x4 /opt/devkitpro/libnds/lib/libnds9.a(biosCalls.o)
 .text.swiFastCopy
                0x00000000        0x4 /opt/devkitpro/libnds/lib/libnds9.a(biosCalls.o)
 .text.swiSqrt  0x00000000        0x4 /opt/devkitpro/libnds/lib/libnds9.a(biosCalls.o)
 .text.swiCRC16
                0x00000000        0x4 /opt/devkitpro/libnds/lib/libnds9.a(biosCalls.o)
 .text.swiIsDebugger
                0x00000000        0x4 /opt/devkitpro/libnds/lib/libnds9.a(biosCalls.o)
 .text.swiUnpackBits
                0x00000000        0x4 /opt/devkitpro/libnds/lib/libnds9.a(biosCalls.o)
 .text.swiDecompressLZSSWram
                0x00000000        0x4 /opt/devkitpro/libnds/lib/libnds9.a(biosCalls.o)
 .text.swiDecompressLZSSVramNTR
                0x00000000        0x4 /opt/devkitpro/libnds/lib/libnds9.a(biosCalls.o)
 .text.swiDecompressLZSSVramTWL
                0x00000000        0x4 /opt/devkitpro/libnds/lib/libnds9.a(biosCalls.o)
 .text.swiDecompressHuffman
                0x00000000        0x4 /opt/devkitpro/libnds/lib/libnds9.a(biosCalls.o)
 .text.swiDecompressRLEWram
                0x00000000        0x4 /opt/devkitpro/libnds/lib/libnds9.a(biosCalls.o)
 .text.swiDecompressRLEVram
                0x00000000        0x4 /opt/devkitpro/libnds/lib/libnds9.a(biosCalls.o)
 .text.swiWaitForIRQ
                0x00000000        0x4 /opt/devkitpro/libnds/lib/libnds9.a(biosCalls.o)
 .text.swiDecodeDelta8
                0x00000000        0x4 /opt/devkitpro/libnds/lib/libnds9.a(biosCalls.o)
 .text.swiDecodeDelta16
                0x00000000        0x4 /opt/devkitpro/libnds/lib/libnds9.a(biosCalls.o)
 .text.swiSetHaltCR
                0x00000000        0x4 /opt/devkitpro/libnds/lib/libnds9.a(biosCalls.o)
 .text          0x00000000       0xa4 /opt/devkitpro/libnds/lib/libnds9.a(debugprint.o)
 .data          0x00000000        0x0 /opt/devkitpro/libnds/lib/libnds9.a(debugprint.o)
 .bss           0x00000000        0x0 /opt/devkitpro/libnds/lib/libnds9.a(debugprint.o)
 .debug_line    0x00000000       0x61 /opt/devkitpro/libnds/lib/libnds9.a(debugprint.o)
 .debug_line_str
                0x00000000       0xd4 /opt/devkitpro/libnds/lib/libnds9.a(debugprint.o)
 .debug_info    0x00000000       0x25 /opt/devkitpro/libnds/lib/libnds9.a(debugprint.o)
 .debug_abbrev  0x00000000       0x14 /opt/devkitpro/libnds/lib/libnds9.a(debugprint.o)
 .debug_aranges
                0x00000000       0x20 /opt/devkitpro/libnds/lib/libnds9.a(debugprint.o)
 .debug_str     0x00000000       0x6d /opt/devkitpro/libnds/lib/libnds9.a(debugprint.o)
 .ARM.attributes
                0x00000000       0x1b /opt/devkitpro/libnds/lib/libnds9.a(debugprint.o)
 .text          0x00000000        0x0 /opt/devkitpro/libnds/lib/libnds9.a(swiSoftReset.o)
 .data          0x00000000        0x0 /opt/devkitpro/libnds/lib/libnds9.a(swiSoftReset.o)
 .bss           0x00000000        0x0 /opt/devkitpro/libnds/lib/libnds9.a(swiSoftReset.o)
 .text          0x00000000        0x0 /opt/devkitpro/libnds/lib/libnds9.a(default_font.bin.o)
 .data          0x00000000        0x0 /opt/devkitpro/libnds/lib/libnds9.a(default_font.bin.o)
 .bss           0x00000000        0x0 /opt/devkitpro/libnds/lib/libnds9.a(default_font.bin.o)
 .text          0x00000000        0x0 /opt/devkitpro/libnds/lib/libnds9.a(background.o)
 .data          0x00000000        0x0 /opt/devkitpro/libnds/lib/libnds9.a(background.o)
 .bss           0x00000000        0x0 /opt/devkitpro/libnds/lib/libnds9.a(background.o)
 .text.bgIsText
                0x00000000        0xc /opt/devkitpro/libnds/lib/libnds9.a(background.o)
 .text          0x00000000        0x0 /opt/devkitpro/libnds/lib/libnds9.a(trig.o)
 .data          0x00000000        0x0 /opt/devkitpro/libnds/lib/libnds9.a(trig.o)
 .bss           0x00000000        0x0 /opt/devkitpro/libnds/lib/libnds9.a(trig.o)
 .text.asinComp
                0x00000000       0x24 /opt/devkitpro/libnds/lib/libnds9.a(trig.o)
 .text.tanLutLookup
                0x00000000       0x30 /opt/devkitpro/libnds/lib/libnds9.a(trig.o)
 .text.tanLerp  0x00000000       0xb0 /opt/devkitpro/libnds/lib/libnds9.a(trig.o)
 .text.asinLerp
                0x00000000       0x98 /opt/devkitpro/libnds/lib/libnds9.a(trig.o)
 .text.acosLerp
                0x00000000       0xa4 /opt/devkitpro/libnds/lib/libnds9.a(trig.o)
 .text.atanComp
                0x00000000       0x24 /opt/devkitpro/libnds/lib/libnds9.a(trig.o)
 .rodata.TAN_LUT
                0x00000000      0x204 /opt/devkitpro/libnds/lib/libnds9.a(trig.o)
 .text          0x00000000        0x0 /opt/devkitpro/libnds/lib/libnds9.a(sprite_alloc.o)
 .data          0x00000000        0x0 /opt/devkitpro/libnds/lib/libnds9.a(sprite_alloc.o)
 .bss           0x00000000        0x0 /opt/devkitpro/libnds/lib/libnds9.a(sprite_alloc.o)
 .text.oamAllocReset
                0x00000000       0x1c /opt/devkitpro/libnds/lib/libnds9.a(sprite_alloc.o)
 .text.oamAllocateGfx
                0x00000000      0x50c /opt/devkitpro/libnds/lib/libnds9.a(sprite_alloc.o)
 .text.oamFreeGfx
                0x00000000      0x438 /opt/devkitpro/libnds/lib/libnds9.a(sprite_alloc.o)
 .text.oamCountFragments
                0x00000000       0x7c /opt/devkitpro/libnds/lib/libnds9.a(sprite_alloc.o)
 .debug_info    0x00000000     0x1cb1 /opt/devkitpro/libnds/lib/libnds9.a(sprite_alloc.o)
 .debug_abbrev  0x00000000      0x3b5 /opt/devkitpro/libnds/lib/libnds9.a(sprite_alloc.o)
 .debug_loclists
                0x00000000     0x121a /opt/devkitpro/libnds/lib/libnds9.a(sprite_alloc.o)
 .debug_aranges
                0x00000000       0x38 /opt/devkitpro/libnds/lib/libnds9.a(sprite_alloc.o)
 .debug_rnglists
                0x00000000      0x788 /opt/devkitpro/libnds/lib/libnds9.a(sprite_alloc.o)
 .debug_line    0x00000000     0x1736 /opt/devkitpro/libnds/lib/libnds9.a(sprite_alloc.o)
 .debug_str     0x00000000      0x7de /opt/devkitpro/libnds/lib/libnds9.a(sprite_alloc.o)
 .comment       0x00000000       0x24 /opt/devkitpro/libnds/lib/libnds9.a(sprite_alloc.o)
 .debug_frame   0x00000000       0x9c /opt/devkitpro/libnds/lib/libnds9.a(sprite_alloc.o)
 .ARM.attributes
                0x00000000       0x2b /opt/devkitpro/libnds/lib/libnds9.a(sprite_alloc.o)
 .text          0x00000000        0x0 /opt/devkitpro/libnds/lib/libnds9.a(system.o)
 .data          0x00000000        0x0 /opt/devkitpro/libnds/lib/libnds9.a(system.o)
 .bss           0x00000000        0x0 /opt/devkitpro/libnds/lib/libnds9.a(system.o)
 .text.setSDcallback
                0x00000000        0xc /opt/devkitpro/libnds/lib/libnds9.a(system.o)
 .text.systemSleep
                0x00000000       0x18 /opt/devkitpro/libnds/lib/libnds9.a(system.o)
 .text.powerOff
                0x00000000       0x28 /opt/devkitpro/libnds/lib/libnds9.a(system.o)
 .text.ledBlink
                0x00000000       0x10 /opt/devkitpro/libnds/lib/libnds9.a(system.o)
 .text.getBatteryLevel
                0x00000000       0x20 /opt/devkitpro/libnds/lib/libnds9.a(system.o)
 .text.enableSlot1
                0x00000000       0x1c /opt/devkitpro/libnds/lib/libnds9.a(system.o)
 .text.disableSlot1
                0x00000000       0x1c /opt/devkitpro/libnds/lib/libnds9.a(system.o)
 .text          0x00000000        0x0 /opt/devkitpro/libnds/lib/libnds9.a(sd.twl.o)
 .data          0x00000000        0x0 /opt/devkitpro/libnds/lib/libnds9.a(sd.twl.o)
 .bss           0x00000000        0x0 /opt/devkitpro/libnds/lib/libnds9.a(sd.twl.o)
 .data          0x00000000        0x0 /opt/devkitpro/devkitARM/bin/../lib/gcc/arm-none-eabi/12.2.0/libgcc.a(_udivsi3.o)
 .bss           0x00000000        0x0 /opt/devkitpro/devkitARM/bin/../lib/gcc/arm-none-eabi/12.2.0/libgcc.a(_udivsi3.o)
 .data          0x00000000        0x0 /opt/devkitpro/devkitARM/bin/../lib/gcc/arm-none-eabi/12.2.0/libgcc.a(_divsi3.o)
 .bss           0x00000000        0x0 /opt/devkitpro/devkitARM/bin/../lib/gcc/arm-none-eabi/12.2.0/libgcc.a(_divsi3.o)
 .data          0x00000000        0x0 /opt/devkitpro/devkitARM/bin/../lib/gcc/arm-none-eabi/12.2.0/libgcc.a(_dvmd_tls.o)
 .bss           0x00000000        0x0 /opt/devkitpro/devkitARM/bin/../lib/gcc/arm-none-eabi/12.2.0/libgcc.a(_dvmd_tls.o)
 .data          0x00000000        0x0 /opt/devkitpro/devkitARM/bin/../lib/gcc/arm-none-eabi/12.2.0/libgcc.a(_aeabi_ldivmod.o)
 .bss           0x00000000        0x0 /opt/devkitpro/devkitARM/bin/../lib/gcc/arm-none-eabi/12.2.0/libgcc.a(_aeabi_ldivmod.o)
 .text          0x00000000        0x0 /opt/devkitpro/devkitARM/bin/../lib/gcc/arm-none-eabi/12.2.0/libgcc.a(_muldi3.o)
 .data          0x00000000        0x0 /opt/devkitpro/devkitARM/bin/../lib/gcc/arm-none-eabi/12.2.0/libgcc.a(_muldi3.o)
 .bss           0x00000000        0x0 /opt/devkitpro/devkitARM/bin/../lib/gcc/arm-none-eabi/12.2.0/libgcc.a(_muldi3.o)
 .text          0x00000000        0x0 /opt/devkitpro/devkitARM/bin/../lib/gcc/arm-none-eabi/12.2.0/libgcc.a(_udivmoddi4.o)
 .data          0x00000000        0x0 /opt/devkitpro/devkitARM/bin/../lib/gcc/arm-none-eabi/12.2.0/libgcc.a(_udivmoddi4.o)
 .bss           0x00000000        0x0 /opt/devkitpro/devkitARM/bin/../lib/gcc/arm-none-eabi/12.2.0/libgcc.a(_udivmoddi4.o)
 .data          0x00000000        0x0 /opt/devkitpro/devkitARM/bin/../lib/gcc/arm-none-eabi/12.2.0/libgcc.a(_clzdi2.o)
 .bss           0x00000000        0x0 /opt/devkitpro/devkitARM/bin/../lib/gcc/arm-none-eabi/12.2.0/libgcc.a(_clzdi2.o)
 .data          0x00000000        0x0 /opt/devkitpro/devkitARM/bin/../lib/gcc/arm-none-eabi/12.2.0/libgcc.a(_clzsi2.o)
 .bss           0x00000000        0x0 /opt/devkitpro/devkitARM/bin/../lib/gcc/arm-none-eabi/12.2.0/libgcc.a(_clzsi2.o)
 .text          0x00000000        0x0 /opt/devkitpro/devkitARM/bin/../lib/gcc/arm-none-eabi/12.2.0/../../../../arm-none-eabi/lib/libg.a(libc_a-calloc.o)
 .data          0x00000000        0x0 /opt/devkitpro/devkitARM/bin/../lib/gcc/arm-none-eabi/12.2.0/../../../../arm-none-eabi/lib/libg.a(libc_a-calloc.o)
 .bss           0x00000000        0x0 /opt/devkitpro/devkitARM/bin/../lib/gcc/arm-none-eabi/12.2.0/../../../../arm-none-eabi/lib/libg.a(libc_a-calloc.o)
 .text          0x00000000        0x0 /opt/devkitpro/devkitARM/bin/../lib/gcc/arm-none-eabi/12.2.0/../../../../arm-none-eabi/lib/libg.a(libc_a-callocr.o)
 .data          0x00000000        0x0 /opt/devkitpro/devkitARM/bin/../lib/gcc/arm-none-eabi/12.2.0/../../../../arm-none-eabi/lib/libg.a(libc_a-callocr.o)
 .bss           0x00000000        0x0 /opt/devkitpro/devkitARM/bin/../lib/gcc/arm-none-eabi/12.2.0/../../../../arm-none-eabi/lib/libg.a(libc_a-callocr.o)
 .text          0x00000000        0x0 /opt/devkitpro/devkitARM/bin/../lib/gcc/arm-none-eabi/12.2.0/../../../../arm-none-eabi/lib/libg.a(libc_a-malloc.o)
 .data          0x00000000        0x0 /opt/devkitpro/devkitARM/bin/../lib/gcc/arm-none-eabi/12.2.0/../../../../arm-none-eabi/lib/libg.a(libc_a-malloc.o)
 .bss           0x00000000        0x0 /opt/devkitpro/devkitARM/bin/../lib/gcc/arm-none-eabi/12.2.0/../../../../arm-none-eabi/lib/libg.a(libc_a-malloc.o)
 .text          0x00000000        0x0 /opt/devkitpro/devkitARM/bin/../lib/gcc/arm-none-eabi/12.2.0/../../../../arm-none-eabi/lib/libg.a(libc_a-mallocr.o)
 .data          0x00000000        0x0 /opt/devkitpro/devkitARM/bin/../lib/gcc/arm-none-eabi/12.2.0/../../../../arm-none-eabi/lib/libg.a(libc_a-mallocr.o)
 .bss           0x00000000        0x0 /opt/devkitpro/devkitARM/bin/../lib/gcc/arm-none-eabi/12.2.0/../../../../arm-none-eabi/lib/libg.a(libc_a-mallocr.o)
 .text          0x00000000        0x0 /opt/devkitpro/devkitARM/bin/../lib/gcc/arm-none-eabi/12.2.0/../../../../arm-none-eabi/lib/libg.a(libc_a-mlock.o)
 .data          0x00000000        0x0 /opt/devkitpro/devkitARM/bin/../lib/gcc/arm-none-eabi/12.2.0/../../../../arm-none-eabi/lib/libg.a(libc_a-mlock.o)
 .bss           0x00000000        0x0 /opt/devkitpro/devkitARM/bin/../lib/gcc/arm-none-eabi/12.2.0/../../../../arm-none-eabi/lib/libg.a(libc_a-mlock.o)
 .text          0x00000000        0x0 /opt/devkitpro/devkitARM/bin/../lib/gcc/arm-none-eabi/12.2.0/../../../../arm-none-eabi/lib/libg.a(libc_a-realloc.o)
 .data          0x00000000        0x0 /opt/devkitpro/devkitARM/bin/../lib/gcc/arm-none-eabi/12.2.0/../../../../arm-none-eabi/lib/libg.a(libc_a-realloc.o)
 .bss           0x00000000        0x0 /opt/devkitpro/devkitARM/bin/../lib/gcc/arm-none-eabi/12.2.0/../../../../arm-none-eabi/lib/libg.a(libc_a-realloc.o)
 .text          0x00000000        0x0 /opt/devkitpro/devkitARM/bin/../lib/gcc/arm-none-eabi/12.2.0/../../../../arm-none-eabi/lib/libg.a(libc_a-reallocr.o)
 .data          0x00000000        0x0 /opt/devkitpro/devkitARM/bin/../lib/gcc/arm-none-eabi/12.2.0/../../../../arm-none-eabi/lib/libg.a(libc_a-reallocr.o)
 .bss           0x00000000        0x0 /opt/devkitpro/devkitARM/bin/../lib/gcc/arm-none-eabi/12.2.0/../../../../arm-none-eabi/lib/libg.a(libc_a-reallocr.o)
 .text          0x00000000        0x0 /opt/devkitpro/devkitARM/bin/../lib/gcc/arm-none-eabi/12.2.0/../../../../arm-none-eabi/lib/libg.a(libc_a-mbrtowc.o)
 .data          0x00000000        0x0 /opt/devkitpro/devkitARM/bin/../lib/gcc/arm-none-eabi/12.2.0/../../../../arm-none-eabi/lib/libg.a(libc_a-mbrtowc.o)
 .bss           0x00000000        0x0 /opt/devkitpro/devkitARM/bin/../lib/gcc/arm-none-eabi/12.2.0/../../../../arm-none-eabi/lib/libg.a(libc_a-mbrtowc.o)
 .text          0x00000000        0x0 /opt/devkitpro/devkitARM/bin/../lib/gcc/arm-none-eabi/12.2.0/../../../../arm-none-eabi/lib/libg.a(libc_a-mbsrtowcs.o)
 .data          0x00000000        0x0 /opt/devkitpro/devkitARM/bin/../lib/gcc/arm-none-eabi/12.2.0/../../../../arm-none-eabi/lib/libg.a(libc_a-mbsrtowcs.o)
 .bss           0x00000000        0x0 /opt/devkitpro/devkitARM/bin/../lib/gcc/arm-none-eabi/12.2.0/../../../../arm-none-eabi/lib/libg.a(libc_a-mbsrtowcs.o)
 .text._mbsrtowcs_r
                0x00000000       0x2c /opt/devkitpro/devkitARM/bin/../lib/gcc/arm-none-eabi/12.2.0/../../../../arm-none-eabi/lib/libg.a(libc_a-mbsrtowcs.o)
 .text          0x00000000        0x0 /opt/devkitpro/devkitARM/bin/../lib/gcc/arm-none-eabi/12.2.0/../../../../arm-none-eabi/lib/libg.a(libc_a-wcrtomb.o)
 .data          0x00000000        0x0 /opt/devkitpro/devkitARM/bin/../lib/gcc/arm-none-eabi/12.2.0/../../../../arm-none-eabi/lib/libg.a(libc_a-wcrtomb.o)
 .bss           0x00000000        0x0 /opt/devkitpro/devkitARM/bin/../lib/gcc/arm-none-eabi/12.2.0/../../../../arm-none-eabi/lib/libg.a(libc_a-wcrtomb.o)
 .text          0x00000000        0x0 /opt/devkitpro/devkitARM/bin/../lib/gcc/arm-none-eabi/12.2.0/../../../../arm-none-eabi/lib/libg.a(libc_a-wctob.o)
 .data          0x00000000        0x0 /opt/devkitpro/devkitARM/bin/../lib/gcc/arm-none-eabi/12.2.0/../../../../arm-none-eabi/lib/libg.a(libc_a-wctob.o)
 .bss           0x00000000        0x0 /opt/devkitpro/devkitARM/bin/../lib/gcc/arm-none-eabi/12.2.0/../../../../arm-none-eabi/lib/libg.a(libc_a-wctob.o)
 .text          0x00000000        0x0 /opt/devkitpro/devkitARM/bin/../lib/gcc/arm-none-eabi/12.2.0/../../../../arm-none-eabi/lib/libg.a(libc_a-ctype_.o)
 .data          0x00000000        0x0 /opt/devkitpro/devkitARM/bin/../lib/gcc/arm-none-eabi/12.2.0/../../../../arm-none-eabi/lib/libg.a(libc_a-ctype_.o)
 .bss           0x00000000        0x0 /opt/devkitpro/devkitARM/bin/../lib/gcc/arm-none-eabi/12.2.0/../../../../arm-none-eabi/lib/libg.a(libc_a-ctype_.o)
 .text.__set_ctype
                0x00000000       0x10 /opt/devkitpro/devkitARM/bin/../lib/gcc/arm-none-eabi/12.2.0/../../../../arm-none-eabi/lib/libg.a(libc_a-ctype_.o)
 .text          0x00000000        0x0 /opt/devkitpro/devkitARM/bin/../lib/gcc/arm-none-eabi/12.2.0/../../../../arm-none-eabi/lib/libg.a(libc_a-towlower.o)
 .data          0x00000000        0x0 /opt/devkitpro/devkitARM/bin/../lib/gcc/arm-none-eabi/12.2.0/../../../../arm-none-eabi/lib/libg.a(libc_a-towlower.o)
 .bss           0x00000000        0x0 /opt/devkitpro/devkitARM/bin/../lib/gcc/arm-none-eabi/12.2.0/../../../../arm-none-eabi/lib/libg.a(libc_a-towlower.o)
 .text          0x00000000        0x0 /opt/devkitpro/devkitARM/bin/../lib/gcc/arm-none-eabi/12.2.0/../../../../arm-none-eabi/lib/libg.a(libc_a-towupper.o)
 .data          0x00000000        0x0 /opt/devkitpro/devkitARM/bin/../lib/gcc/arm-none-eabi/12.2.0/../../../../arm-none-eabi/lib/libg.a(libc_a-towupper.o)
 .bss           0x00000000        0x0 /opt/devkitpro/devkitARM/bin/../lib/gcc/arm-none-eabi/12.2.0/../../../../arm-none-eabi/lib/libg.a(libc_a-towupper.o)
 .text          0x00000000        0x0 /opt/devkitpro/devkitARM/bin/../lib/gcc/arm-none-eabi/12.2.0/../../../../arm-none-eabi/lib/libg.a(libc_a-bsearch.o)
 .data          0x00000000        0x0 /opt/devkitpro/devkitARM/bin/../lib/gcc/arm-none-eabi/12.2.0/../../../../arm-none-eabi/lib/libg.a(libc_a-bsearch.o)
 .bss           0x00000000        0x0 /opt/devkitpro/devkitARM/bin/../lib/gcc/arm-none-eabi/12.2.0/../../../../arm-none-eabi/lib/libg.a(libc_a-bsearch.o)
 .text.bsearch  0x00000000       0x80 /opt/devkitpro/devkitARM/bin/../lib/gcc/arm-none-eabi/12.2.0/../../../../arm-none-eabi/lib/libg.a(libc_a-bsearch.o)
 .comment       0x00000000       0x24 /opt/devkitpro/devkitARM/bin/../lib/gcc/arm-none-eabi/12.2.0/../../../../arm-none-eabi/lib/libg.a(libc_a-bsearch.o)
 .ARM.attributes
                0x00000000       0x2a /opt/devkitpro/devkitARM/bin/../lib/gcc/arm-none-eabi/12.2.0/../../../../arm-none-eabi/lib/libg.a(libc_a-bsearch.o)
 .text          0x00000000        0x0 /opt/devkitpro/devkitARM/bin/../lib/gcc/arm-none-eabi/12.2.0/../../../../arm-none-eabi/lib/libg.a(libc_a-iprintf.o)
 .data          0x00000000        0x0 /opt/devkitpro/devkitARM/bin/../lib/gcc/arm-none-eabi/12.2.0/../../../../arm-none-eabi/lib/libg.a(libc_a-iprintf.o)
 .bss           0x00000000        0x0 /opt/devkitpro/devkitARM/bin/../lib/gcc/arm-none-eabi/12.2.0/../../../../arm-none-eabi/lib/libg.a(libc_a-iprintf.o)
 .text._iprintf_r
                0x00000000       0x30 /opt/devkitpro/devkitARM/bin/../lib/gcc/arm-none-eabi/12.2.0/../../../../arm-none-eabi/lib/libg.a(libc_a-iprintf.o)
 .text          0x00000000        0x0 /opt/devkitpro/devkitARM/bin/../lib/gcc/arm-none-eabi/12.2.0/../../../../arm-none-eabi/lib/libg.a(libc_a-siscanf.o)
 .data          0x00000000        0x0 /opt/devkitpro/devkitARM/bin/../lib/gcc/arm-none-eabi/12.2.0/../../../../arm-none-eabi/lib/libg.a(libc_a-siscanf.o)
 .bss           0x00000000        0x0 /opt/devkitpro/devkitARM/bin/../lib/gcc/arm-none-eabi/12.2.0/../../../../arm-none-eabi/lib/libg.a(libc_a-siscanf.o)
 .text._siscanf_r
                0x00000000       0x7c /opt/devkitpro/devkitARM/bin/../lib/gcc/arm-none-eabi/12.2.0/../../../../arm-none-eabi/lib/libg.a(libc_a-siscanf.o)
 .text          0x00000000        0x0 /opt/devkitpro/devkitARM/bin/../lib/gcc/arm-none-eabi/12.2.0/../../../../arm-none-eabi/lib/libg.a(libc_a-svfiscanf.o)
 .data          0x00000000        0x0 /opt/devkitpro/devkitARM/bin/../lib/gcc/arm-none-eabi/12.2.0/../../../../arm-none-eabi/lib/libg.a(libc_a-svfiscanf.o)
 .bss           0x00000000        0x0 /opt/devkitpro/devkitARM/bin/../lib/gcc/arm-none-eabi/12.2.0/../../../../arm-none-eabi/lib/libg.a(libc_a-svfiscanf.o)
 .text          0x00000000        0x0 /opt/devkitpro/devkitARM/bin/../lib/gcc/arm-none-eabi/12.2.0/../../../../arm-none-eabi/lib/libg.a(libc_a-vfiprintf.o)
 .data          0x00000000        0x0 /opt/devkitpro/devkitARM/bin/../lib/gcc/arm-none-eabi/12.2.0/../../../../arm-none-eabi/lib/libg.a(libc_a-vfiprintf.o)
 .bss           0x00000000        0x0 /opt/devkitpro/devkitARM/bin/../lib/gcc/arm-none-eabi/12.2.0/../../../../arm-none-eabi/lib/libg.a(libc_a-vfiprintf.o)
 .text.vfiprintf
                0x00000000       0x28 /opt/devkitpro/devkitARM/bin/../lib/gcc/arm-none-eabi/12.2.0/../../../../arm-none-eabi/lib/libg.a(libc_a-vfiprintf.o)
 .text          0x00000000        0x0 /opt/devkitpro/devkitARM/bin/../lib/gcc/arm-none-eabi/12.2.0/../../../../arm-none-eabi/lib/libg.a(libc_a-fclose.o)
 .data          0x00000000        0x0 /opt/devkitpro/devkitARM/bin/../lib/gcc/arm-none-eabi/12.2.0/../../../../arm-none-eabi/lib/libg.a(libc_a-fclose.o)
 .bss           0x00000000        0x0 /opt/devkitpro/devkitARM/bin/../lib/gcc/arm-none-eabi/12.2.0/../../../../arm-none-eabi/lib/libg.a(libc_a-fclose.o)
 .text          0x00000000        0x0 /opt/devkitpro/devkitARM/bin/../lib/gcc/arm-none-eabi/12.2.0/../../../../arm-none-eabi/lib/libg.a(libc_a-fflush.o)
 .data          0x00000000        0x0 /opt/devkitpro/devkitARM/bin/../lib/gcc/arm-none-eabi/12.2.0/../../../../arm-none-eabi/lib/libg.a(libc_a-fflush.o)
 .bss           0x00000000        0x0 /opt/devkitpro/devkitARM/bin/../lib/gcc/arm-none-eabi/12.2.0/../../../../arm-none-eabi/lib/libg.a(libc_a-fflush.o)
 .text.fflush   0x00000000       0x40 /opt/devkitpro/devkitARM/bin/../lib/gcc/arm-none-eabi/12.2.0/../../../../arm-none-eabi/lib/libg.a(libc_a-fflush.o)
 .text          0x00000000        0x0 /opt/devkitpro/devkitARM/bin/../lib/gcc/arm-none-eabi/12.2.0/../../../../arm-none-eabi/lib/libg.a(libc_a-findfp.o)
 .data          0x00000000        0x0 /opt/devkitpro/devkitARM/bin/../lib/gcc/arm-none-eabi/12.2.0/../../../../arm-none-eabi/lib/libg.a(libc_a-findfp.o)
 .bss           0x00000000        0x0 /opt/devkitpro/devkitARM/bin/../lib/gcc/arm-none-eabi/12.2.0/../../../../arm-none-eabi/lib/libg.a(libc_a-findfp.o)
 .text.__fp_lock
                0x00000000       0x38 /opt/devkitpro/devkitARM/bin/../lib/gcc/arm-none-eabi/12.2.0/../../../../arm-none-eabi/lib/libg.a(libc_a-findfp.o)
 .text.__fp_unlock
                0x00000000       0x38 /opt/devkitpro/devkitARM/bin/../lib/gcc/arm-none-eabi/12.2.0/../../../../arm-none-eabi/lib/libg.a(libc_a-findfp.o)
 .text.__fp_lock_all
                0x00000000       0x30 /opt/devkitpro/devkitARM/bin/../lib/gcc/arm-none-eabi/12.2.0/../../../../arm-none-eabi/lib/libg.a(libc_a-findfp.o)
 .text.__fp_unlock_all
                0x00000000       0x30 /opt/devkitpro/devkitARM/bin/../lib/gcc/arm-none-eabi/12.2.0/../../../../arm-none-eabi/lib/libg.a(libc_a-findfp.o)
 .text          0x00000000        0x0 /opt/devkitpro/devkitARM/bin/../lib/gcc/arm-none-eabi/12.2.0/../../../../arm-none-eabi/lib/libg.a(libc_a-fopen.o)
 .data          0x00000000        0x0 /opt/devkitpro/devkitARM/bin/../lib/gcc/arm-none-eabi/12.2.0/../../../../arm-none-eabi/lib/libg.a(libc_a-fopen.o)
 .bss           0x00000000        0x0 /opt/devkitpro/devkitARM/bin/../lib/gcc/arm-none-eabi/12.2.0/../../../../arm-none-eabi/lib/libg.a(libc_a-fopen.o)
 .text          0x00000000        0x0 /opt/devkitpro/devkitARM/bin/../lib/gcc/arm-none-eabi/12.2.0/../../../../arm-none-eabi/lib/libg.a(libc_a-fread.o)
 .data          0x00000000        0x0 /opt/devkitpro/devkitARM/bin/../lib/gcc/arm-none-eabi/12.2.0/../../../../arm-none-eabi/lib/libg.a(libc_a-fread.o)
 .bss           0x00000000        0x0 /opt/devkitpro/devkitARM/bin/../lib/gcc/arm-none-eabi/12.2.0/../../../../arm-none-eabi/lib/libg.a(libc_a-fread.o)
 .text          0x00000000        0x0 /opt/devkitpro/devkitARM/bin/../lib/gcc/arm-none-eabi/12.2.0/../../../../arm-none-eabi/lib/libg.a(libc_a-fseek.o)
 .data          0x00000000        0x0 /opt/devkitpro/devkitARM/bin/../lib/gcc/arm-none-eabi/12.2.0/../../../../arm-none-eabi/lib/libg.a(libc_a-fseek.o)
 .bss           0x00000000        0x0 /opt/devkitpro/devkitARM/bin/../lib/gcc/arm-none-eabi/12.2.0/../../../../arm-none-eabi/lib/libg.a(libc_a-fseek.o)
 .text          0x00000000        0x0 /opt/devkitpro/devkitARM/bin/../lib/gcc/arm-none-eabi/12.2.0/../../../../arm-none-eabi/lib/libg.a(libc_a-ftell.o)
 .data          0x00000000        0x0 /opt/devkitpro/devkitARM/bin/../lib/gcc/arm-none-eabi/12.2.0/../../../../arm-none-eabi/lib/libg.a(libc_a-ftell.o)
 .bss           0x00000000        0x0 /opt/devkitpro/devkitARM/bin/../lib/gcc/arm-none-eabi/12.2.0/../../../../arm-none-eabi/lib/libg.a(libc_a-ftell.o)
 .text._ftell_r
                0x00000000       0x24 /opt/devkitpro/devkitARM/bin/../lib/gcc/arm-none-eabi/12.2.0/../../../../arm-none-eabi/lib/libg.a(libc_a-ftell.o)
 .text          0x00000000        0x0 /opt/devkitpro/devkitARM/bin/../lib/gcc/arm-none-eabi/12.2.0/../../../../arm-none-eabi/lib/libg.a(libc_a-fvwrite.o)
 .data          0x00000000        0x0 /opt/devkitpro/devkitARM/bin/../lib/gcc/arm-none-eabi/12.2.0/../../../../arm-none-eabi/lib/libg.a(libc_a-fvwrite.o)
 .bss           0x00000000        0x0 /opt/devkitpro/devkitARM/bin/../lib/gcc/arm-none-eabi/12.2.0/../../../../arm-none-eabi/lib/libg.a(libc_a-fvwrite.o)
 .text          0x00000000        0x0 /opt/devkitpro/devkitARM/bin/../lib/gcc/arm-none-eabi/12.2.0/../../../../arm-none-eabi/lib/libg.a(libc_a-fwalk.o)
 .data          0x00000000        0x0 /opt/devkitpro/devkitARM/bin/../lib/gcc/arm-none-eabi/12.2.0/../../../../arm-none-eabi/lib/libg.a(libc_a-fwalk.o)
 .bss           0x00000000        0x0 /opt/devkitpro/devkitARM/bin/../lib/gcc/arm-none-eabi/12.2.0/../../../../arm-none-eabi/lib/libg.a(libc_a-fwalk.o)
 .text          0x00000000        0x0 /opt/devkitpro/devkitARM/bin/../lib/gcc/arm-none-eabi/12.2.0/../../../../arm-none-eabi/lib/libg.a(libc_a-makebuf.o)
 .data          0x00000000        0x0 /opt/devkitpro/devkitARM/bin/../lib/gcc/arm-none-eabi/12.2.0/../../../../arm-none-eabi/lib/libg.a(libc_a-makebuf.o)
 .bss           0x00000000        0x0 /opt/devkitpro/devkitARM/bin/../lib/gcc/arm-none-eabi/12.2.0/../../../../arm-none-eabi/lib/libg.a(libc_a-makebuf.o)
 .text          0x00000000        0x0 /opt/devkitpro/devkitARM/bin/../lib/gcc/arm-none-eabi/12.2.0/../../../../arm-none-eabi/lib/libg.a(libc_a-puts.o)
 .data          0x00000000        0x0 /opt/devkitpro/devkitARM/bin/../lib/gcc/arm-none-eabi/12.2.0/../../../../arm-none-eabi/lib/libg.a(libc_a-puts.o)
 .bss           0x00000000        0x0 /opt/devkitpro/devkitARM/bin/../lib/gcc/arm-none-eabi/12.2.0/../../../../arm-none-eabi/lib/libg.a(libc_a-puts.o)
 .text          0x00000000        0x0 /opt/devkitpro/devkitARM/bin/../lib/gcc/arm-none-eabi/12.2.0/../../../../arm-none-eabi/lib/libg.a(libc_a-refill.o)
 .data          0x00000000        0x0 /opt/devkitpro/devkitARM/bin/../lib/gcc/arm-none-eabi/12.2.0/../../../../arm-none-eabi/lib/libg.a(libc_a-refill.o)
 .bss           0x00000000        0x0 /opt/devkitpro/devkitARM/bin/../lib/gcc/arm-none-eabi/12.2.0/../../../../arm-none-eabi/lib/libg.a(libc_a-refill.o)
 .text          0x00000000        0x0 /opt/devkitpro/devkitARM/bin/../lib/gcc/arm-none-eabi/12.2.0/../../../../arm-none-eabi/lib/libg.a(libc_a-rewind.o)
 .data          0x00000000        0x0 /opt/devkitpro/devkitARM/bin/../lib/gcc/arm-none-eabi/12.2.0/../../../../arm-none-eabi/lib/libg.a(libc_a-rewind.o)
 .bss           0x00000000        0x0 /opt/devkitpro/devkitARM/bin/../lib/gcc/arm-none-eabi/12.2.0/../../../../arm-none-eabi/lib/libg.a(libc_a-rewind.o)
 .text._rewind_r
                0x00000000       0x28 /opt/devkitpro/devkitARM/bin/../lib/gcc/arm-none-eabi/12.2.0/../../../../arm-none-eabi/lib/libg.a(libc_a-rewind.o)
 .text          0x00000000        0x0 /opt/devkitpro/devkitARM/bin/../lib/gcc/arm-none-eabi/12.2.0/../../../../arm-none-eabi/lib/libg.a(libc_a-sccl.o)
 .data          0x00000000        0x0 /opt/devkitpro/devkitARM/bin/../lib/gcc/arm-none-eabi/12.2.0/../../../../arm-none-eabi/lib/libg.a(libc_a-sccl.o)
 .bss           0x00000000        0x0 /opt/devkitpro/devkitARM/bin/../lib/gcc/arm-none-eabi/12.2.0/../../../../arm-none-eabi/lib/libg.a(libc_a-sccl.o)
 .text          0x00000000        0x0 /opt/devkitpro/devkitARM/bin/../lib/gcc/arm-none-eabi/12.2.0/../../../../arm-none-eabi/lib/libg.a(libc_a-setvbuf.o)
 .data          0x00000000        0x0 /opt/devkitpro/devkitARM/bin/../lib/gcc/arm-none-eabi/12.2.0/../../../../arm-none-eabi/lib/libg.a(libc_a-setvbuf.o)
 .bss           0x00000000        0x0 /opt/devkitpro/devkitARM/bin/../lib/gcc/arm-none-eabi/12.2.0/../../../../arm-none-eabi/lib/libg.a(libc_a-setvbuf.o)
 .text          0x00000000        0x0 /opt/devkitpro/devkitARM/bin/../lib/gcc/arm-none-eabi/12.2.0/../../../../arm-none-eabi/lib/libg.a(libc_a-snprintf.o)
 .data          0x00000000        0x0 /opt/devkitpro/devkitARM/bin/../lib/gcc/arm-none-eabi/12.2.0/../../../../arm-none-eabi/lib/libg.a(libc_a-snprintf.o)
 .bss           0x00000000        0x0 /opt/devkitpro/devkitARM/bin/../lib/gcc/arm-none-eabi/12.2.0/../../../../arm-none-eabi/lib/libg.a(libc_a-snprintf.o)
 .text._snprintf_r
                0x00000000       0xc0 /opt/devkitpro/devkitARM/bin/../lib/gcc/arm-none-eabi/12.2.0/../../../../arm-none-eabi/lib/libg.a(libc_a-snprintf.o)
 .text          0x00000000        0x0 /opt/devkitpro/devkitARM/bin/../lib/gcc/arm-none-eabi/12.2.0/../../../../arm-none-eabi/lib/libg.a(libc_a-stdio.o)
 .data          0x00000000        0x0 /opt/devkitpro/devkitARM/bin/../lib/gcc/arm-none-eabi/12.2.0/../../../../arm-none-eabi/lib/libg.a(libc_a-stdio.o)
 .bss           0x00000000        0x0 /opt/devkitpro/devkitARM/bin/../lib/gcc/arm-none-eabi/12.2.0/../../../../arm-none-eabi/lib/libg.a(libc_a-stdio.o)
 .text          0x00000000        0x0 /opt/devkitpro/devkitARM/bin/../lib/gcc/arm-none-eabi/12.2.0/../../../../arm-none-eabi/lib/libg.a(libc_a-ungetc.o)
 .data          0x00000000        0x0 /opt/devkitpro/devkitARM/bin/../lib/gcc/arm-none-eabi/12.2.0/../../../../arm-none-eabi/lib/libg.a(libc_a-ungetc.o)
 .bss           0x00000000        0x0 /opt/devkitpro/devkitARM/bin/../lib/gcc/arm-none-eabi/12.2.0/../../../../arm-none-eabi/lib/libg.a(libc_a-ungetc.o)
 .text._ungetc_r
                0x00000000      0x210 /opt/devkitpro/devkitARM/bin/../lib/gcc/arm-none-eabi/12.2.0/../../../../arm-none-eabi/lib/libg.a(libc_a-ungetc.o)
 .text.ungetc   0x00000000       0x20 /opt/devkitpro/devkitARM/bin/../lib/gcc/arm-none-eabi/12.2.0/../../../../arm-none-eabi/lib/libg.a(libc_a-ungetc.o)
 .text          0x00000000        0x0 /opt/devkitpro/devkitARM/bin/../lib/gcc/arm-none-eabi/12.2.0/../../../../arm-none-eabi/lib/libg.a(libc_a-wsetup.o)
 .data          0x00000000        0x0 /opt/devkitpro/devkitARM/bin/../lib/gcc/arm-none-eabi/12.2.0/../../../../arm-none-eabi/lib/libg.a(libc_a-wsetup.o)
 .bss           0x00000000        0x0 /opt/devkitpro/devkitARM/bin/../lib/gcc/arm-none-eabi/12.2.0/../../../../arm-none-eabi/lib/libg.a(libc_a-wsetup.o)
 .text          0x00000000        0x0 /opt/devkitpro/devkitARM/bin/../lib/gcc/arm-none-eabi/12.2.0/../../../../arm-none-eabi/lib/libg.a(libc_a-fseeko.o)
 .data          0x00000000        0x0 /opt/devkitpro/devkitARM/bin/../lib/gcc/arm-none-eabi/12.2.0/../../../../arm-none-eabi/lib/libg.a(libc_a-fseeko.o)
 .bss           0x00000000        0x0 /opt/devkitpro/devkitARM/bin/../lib/gcc/arm-none-eabi/12.2.0/../../../../arm-none-eabi/lib/libg.a(libc_a-fseeko.o)
 .text.fseeko   0x00000000       0x30 /opt/devkitpro/devkitARM/bin/../lib/gcc/arm-none-eabi/12.2.0/../../../../arm-none-eabi/lib/libg.a(libc_a-fseeko.o)
 .text          0x00000000        0x0 /opt/devkitpro/devkitARM/bin/../lib/gcc/arm-none-eabi/12.2.0/../../../../arm-none-eabi/lib/libg.a(libc_a-ftello.o)
 .data          0x00000000        0x0 /opt/devkitpro/devkitARM/bin/../lib/gcc/arm-none-eabi/12.2.0/../../../../arm-none-eabi/lib/libg.a(libc_a-ftello.o)
 .bss           0x00000000        0x0 /opt/devkitpro/devkitARM/bin/../lib/gcc/arm-none-eabi/12.2.0/../../../../arm-none-eabi/lib/libg.a(libc_a-ftello.o)
 .text.ftello   0x00000000       0x18 /opt/devkitpro/devkitARM/bin/../lib/gcc/arm-none-eabi/12.2.0/../../../../arm-none-eabi/lib/libg.a(libc_a-ftello.o)
 .text          0x00000000        0x0 /opt/devkitpro/devkitARM/bin/../lib/gcc/arm-none-eabi/12.2.0/../../../../arm-none-eabi/lib/libg.a(libc_a-memcmp.o)
 .data          0x00000000        0x0 /opt/devkitpro/devkitARM/bin/../lib/gcc/arm-none-eabi/12.2.0/../../../../arm-none-eabi/lib/libg.a(libc_a-memcmp.o)
 .bss           0x00000000        0x0 /opt/devkitpro/devkitARM/bin/../lib/gcc/arm-none-eabi/12.2.0/../../../../arm-none-eabi/lib/libg.a(libc_a-memcmp.o)
 .text          0x00000000        0x0 /opt/devkitpro/devkitARM/bin/../lib/gcc/arm-none-eabi/12.2.0/../../../../arm-none-eabi/lib/libg.a(libc_a-memmove.o)
 .data          0x00000000        0x0 /opt/devkitpro/devkitARM/bin/../lib/gcc/arm-none-eabi/12.2.0/../../../../arm-none-eabi/lib/libg.a(libc_a-memmove.o)
 .bss           0x00000000        0x0 /opt/devkitpro/devkitARM/bin/../lib/gcc/arm-none-eabi/12.2.0/../../../../arm-none-eabi/lib/libg.a(libc_a-memmove.o)
 .text          0x00000000        0x0 /opt/devkitpro/devkitARM/bin/../lib/gcc/arm-none-eabi/12.2.0/../../../../arm-none-eabi/lib/libg.a(libc_a-memset.o)
 .data          0x00000000        0x0 /opt/devkitpro/devkitARM/bin/../lib/gcc/arm-none-eabi/12.2.0/../../../../arm-none-eabi/lib/libg.a(libc_a-memset.o)
 .bss           0x00000000        0x0 /opt/devkitpro/devkitARM/bin/../lib/gcc/arm-none-eabi/12.2.0/../../../../arm-none-eabi/lib/libg.a(libc_a-memset.o)
 .text          0x00000000        0x0 /opt/devkitpro/devkitARM/bin/../lib/gcc/arm-none-eabi/12.2.0/../../../../arm-none-eabi/lib/libg.a(libc_a-strcasecmp.o)
 .data          0x00000000        0x0 /opt/devkitpro/devkitARM/bin/../lib/gcc/arm-none-eabi/12.2.0/../../../../arm-none-eabi/lib/libg.a(libc_a-strcasecmp.o)
 .bss           0x00000000        0x0 /opt/devkitpro/devkitARM/bin/../lib/gcc/arm-none-eabi/12.2.0/../../../../arm-none-eabi/lib/libg.a(libc_a-strcasecmp.o)
 .text          0x00000000        0x0 /opt/devkitpro/devkitARM/bin/../lib/gcc/arm-none-eabi/12.2.0/../../../../arm-none-eabi/lib/libg.a(libc_a-strchr.o)
 .data          0x00000000        0x0 /opt/devkitpro/devkitARM/bin/../lib/gcc/arm-none-eabi/12.2.0/../../../../arm-none-eabi/lib/libg.a(libc_a-strchr.o)
 .bss           0x00000000        0x0 /opt/devkitpro/devkitARM/bin/../lib/gcc/arm-none-eabi/12.2.0/../../../../arm-none-eabi/lib/libg.a(libc_a-strchr.o)
 .text          0x00000000        0x0 /opt/devkitpro/devkitARM/bin/../lib/gcc/arm-none-eabi/12.2.0/../../../../arm-none-eabi/lib/libg.a(libc_a-strdup.o)
 .data          0x00000000        0x0 /opt/devkitpro/devkitARM/bin/../lib/gcc/arm-none-eabi/12.2.0/../../../../arm-none-eabi/lib/libg.a(libc_a-strdup.o)
 .bss           0x00000000        0x0 /opt/devkitpro/devkitARM/bin/../lib/gcc/arm-none-eabi/12.2.0/../../../../arm-none-eabi/lib/libg.a(libc_a-strdup.o)
 .text          0x00000000        0x0 /opt/devkitpro/devkitARM/bin/../lib/gcc/arm-none-eabi/12.2.0/../../../../arm-none-eabi/lib/libg.a(libc_a-strdup_r.o)
 .data          0x00000000        0x0 /opt/devkitpro/devkitARM/bin/../lib/gcc/arm-none-eabi/12.2.0/../../../../arm-none-eabi/lib/libg.a(libc_a-strdup_r.o)
 .bss           0x00000000        0x0 /opt/devkitpro/devkitARM/bin/../lib/gcc/arm-none-eabi/12.2.0/../../../../arm-none-eabi/lib/libg.a(libc_a-strdup_r.o)
 .text          0x00000000        0x0 /opt/devkitpro/devkitARM/bin/../lib/gcc/arm-none-eabi/12.2.0/../../../../arm-none-eabi/lib/libg.a(libc_a-strlen.o)
 .data          0x00000000        0x0 /opt/devkitpro/devkitARM/bin/../lib/gcc/arm-none-eabi/12.2.0/../../../../arm-none-eabi/lib/libg.a(libc_a-strlen.o)
 .bss           0x00000000        0x0 /opt/devkitpro/devkitARM/bin/../lib/gcc/arm-none-eabi/12.2.0/../../../../arm-none-eabi/lib/libg.a(libc_a-strlen.o)
 .text          0x00000000        0x0 /opt/devkitpro/devkitARM/bin/../lib/gcc/arm-none-eabi/12.2.0/../../../../arm-none-eabi/lib/libg.a(libc_a-strncasecmp.o)
 .data          0x00000000        0x0 /opt/devkitpro/devkitARM/bin/../lib/gcc/arm-none-eabi/12.2.0/../../../../arm-none-eabi/lib/libg.a(libc_a-strncasecmp.o)
 .bss           0x00000000        0x0 /opt/devkitpro/devkitARM/bin/../lib/gcc/arm-none-eabi/12.2.0/../../../../arm-none-eabi/lib/libg.a(libc_a-strncasecmp.o)
 .text          0x00000000        0x0 /opt/devkitpro/devkitARM/bin/../lib/gcc/arm-none-eabi/12.2.0/../../../../arm-none-eabi/lib/libg.a(libc_a-strncmp.o)
 .data          0x00000000        0x0 /opt/devkitpro/devkitARM/bin/../lib/gcc/arm-none-eabi/12.2.0/../../../../arm-none-eabi/lib/libg.a(libc_a-strncmp.o)
 .bss           0x00000000        0x0 /opt/devkitpro/devkitARM/bin/../lib/gcc/arm-none-eabi/12.2.0/../../../../arm-none-eabi/lib/libg.a(libc_a-strncmp.o)
 .text          0x00000000        0x0 /opt/devkitpro/devkitARM/bin/../lib/gcc/arm-none-eabi/12.2.0/../../../../arm-none-eabi/lib/libg.a(libc_a-strncpy.o)
 .data          0x00000000        0x0 /opt/devkitpro/devkitARM/bin/../lib/gcc/arm-none-eabi/12.2.0/../../../../arm-none-eabi/lib/libg.a(libc_a-strncpy.o)
 .bss           0x00000000        0x0 /opt/devkitpro/devkitARM/bin/../lib/gcc/arm-none-eabi/12.2.0/../../../../arm-none-eabi/lib/libg.a(libc_a-strncpy.o)
 .text          0x00000000        0x0 /opt/devkitpro/devkitARM/bin/../lib/gcc/arm-none-eabi/12.2.0/../../../../arm-none-eabi/lib/libg.a(libc_a-strnlen.o)
 .data          0x00000000        0x0 /opt/devkitpro/devkitARM/bin/../lib/gcc/arm-none-eabi/12.2.0/../../../../arm-none-eabi/lib/libg.a(libc_a-strnlen.o)
 .bss           0x00000000        0x0 /opt/devkitpro/devkitARM/bin/../lib/gcc/arm-none-eabi/12.2.0/../../../../arm-none-eabi/lib/libg.a(libc_a-strnlen.o)
 .text          0x00000000        0x0 /opt/devkitpro/devkitARM/bin/../lib/gcc/arm-none-eabi/12.2.0/../../../../arm-none-eabi/lib/libg.a(libc_a-strpbrk.o)
 .data          0x00000000        0x0 /opt/devkitpro/devkitARM/bin/../lib/gcc/arm-none-eabi/12.2.0/../../../../arm-none-eabi/lib/libg.a(libc_a-strpbrk.o)
 .bss           0x00000000        0x0 /opt/devkitpro/devkitARM/bin/../lib/gcc/arm-none-eabi/12.2.0/../../../../arm-none-eabi/lib/libg.a(libc_a-strpbrk.o)
 .text          0x00000000        0x0 /opt/devkitpro/devkitARM/bin/../lib/gcc/arm-none-eabi/12.2.0/../../../../arm-none-eabi/lib/libg.a(libc_a-strrchr.o)
 .data          0x00000000        0x0 /opt/devkitpro/devkitARM/bin/../lib/gcc/arm-none-eabi/12.2.0/../../../../arm-none-eabi/lib/libg.a(libc_a-strrchr.o)
 .bss           0x00000000        0x0 /opt/devkitpro/devkitARM/bin/../lib/gcc/arm-none-eabi/12.2.0/../../../../arm-none-eabi/lib/libg.a(libc_a-strrchr.o)
 .text          0x00000000        0x0 /opt/devkitpro/devkitARM/bin/../lib/gcc/arm-none-eabi/12.2.0/../../../../arm-none-eabi/lib/libg.a(libc_a-stpcpy.o)
 .data          0x00000000        0x0 /opt/devkitpro/devkitARM/bin/../lib/gcc/arm-none-eabi/12.2.0/../../../../arm-none-eabi/lib/libg.a(libc_a-stpcpy.o)
 .bss           0x00000000        0x0 /opt/devkitpro/devkitARM/bin/../lib/gcc/arm-none-eabi/12.2.0/../../../../arm-none-eabi/lib/libg.a(libc_a-stpcpy.o)
 .text          0x00000000        0x0 /opt/devkitpro/devkitARM/bin/../lib/gcc/arm-none-eabi/12.2.0/../../../../arm-none-eabi/lib/libg.a(libc_a-lcltime_r.o)
 .data          0x00000000        0x0 /opt/devkitpro/devkitARM/bin/../lib/gcc/arm-none-eabi/12.2.0/../../../../arm-none-eabi/lib/libg.a(libc_a-lcltime_r.o)
 .bss           0x00000000        0x0 /opt/devkitpro/devkitARM/bin/../lib/gcc/arm-none-eabi/12.2.0/../../../../arm-none-eabi/lib/libg.a(libc_a-lcltime_r.o)
 .text          0x00000000        0x0 /opt/devkitpro/devkitARM/bin/../lib/gcc/arm-none-eabi/12.2.0/../../../../arm-none-eabi/lib/libg.a(libc_a-mktime.o)
 .data          0x00000000        0x0 /opt/devkitpro/devkitARM/bin/../lib/gcc/arm-none-eabi/12.2.0/../../../../arm-none-eabi/lib/libg.a(libc_a-mktime.o)
 .bss           0x00000000        0x0 /opt/devkitpro/devkitARM/bin/../lib/gcc/arm-none-eabi/12.2.0/../../../../arm-none-eabi/lib/libg.a(libc_a-mktime.o)
 .text          0x00000000        0x0 /opt/devkitpro/devkitARM/bin/../lib/gcc/arm-none-eabi/12.2.0/../../../../arm-none-eabi/lib/libg.a(libc_a-month_lengths.o)
 .data          0x00000000        0x0 /opt/devkitpro/devkitARM/bin/../lib/gcc/arm-none-eabi/12.2.0/../../../../arm-none-eabi/lib/libg.a(libc_a-month_lengths.o)
 .bss           0x00000000        0x0 /opt/devkitpro/devkitARM/bin/../lib/gcc/arm-none-eabi/12.2.0/../../../../arm-none-eabi/lib/libg.a(libc_a-month_lengths.o)
 .text          0x00000000        0x0 /opt/devkitpro/devkitARM/bin/../lib/gcc/arm-none-eabi/12.2.0/../../../../arm-none-eabi/lib/libg.a(libc_a-time.o)
 .data          0x00000000        0x0 /opt/devkitpro/devkitARM/bin/../lib/gcc/arm-none-eabi/12.2.0/../../../../arm-none-eabi/lib/libg.a(libc_a-time.o)
 .bss           0x00000000        0x0 /opt/devkitpro/devkitARM/bin/../lib/gcc/arm-none-eabi/12.2.0/../../../../arm-none-eabi/lib/libg.a(libc_a-time.o)
 .text          0x00000000        0x0 /opt/devkitpro/devkitARM/bin/../lib/gcc/arm-none-eabi/12.2.0/../../../../arm-none-eabi/lib/libg.a(libc_a-tzcalc_limits.o)
 .data          0x00000000        0x0 /opt/devkitpro/devkitARM/bin/../lib/gcc/arm-none-eabi/12.2.0/../../../../arm-none-eabi/lib/libg.a(libc_a-tzcalc_limits.o)
 .bss           0x00000000        0x0 /opt/devkitpro/devkitARM/bin/../lib/gcc/arm-none-eabi/12.2.0/../../../../arm-none-eabi/lib/libg.a(libc_a-tzcalc_limits.o)
 .text          0x00000000        0x0 /opt/devkitpro/devkitARM/bin/../lib/gcc/arm-none-eabi/12.2.0/../../../../arm-none-eabi/lib/libg.a(libc_a-tzlock.o)
 .data          0x00000000        0x0 /opt/devkitpro/devkitARM/bin/../lib/gcc/arm-none-eabi/12.2.0/../../../../arm-none-eabi/lib/libg.a(libc_a-tzlock.o)
 .bss           0x00000000        0x0 /opt/devkitpro/devkitARM/bin/../lib/gcc/arm-none-eabi/12.2.0/../../../../arm-none-eabi/lib/libg.a(libc_a-tzlock.o)
 .text          0x00000000        0x0 /opt/devkitpro/devkitARM/bin/../lib/gcc/arm-none-eabi/12.2.0/../../../../arm-none-eabi/lib/libg.a(libc_a-tzset.o)
 .data          0x00000000        0x0 /opt/devkitpro/devkitARM/bin/../lib/gcc/arm-none-eabi/12.2.0/../../../../arm-none-eabi/lib/libg.a(libc_a-tzset.o)
 .bss           0x00000000        0x0 /opt/devkitpro/devkitARM/bin/../lib/gcc/arm-none-eabi/12.2.0/../../../../arm-none-eabi/lib/libg.a(libc_a-tzset.o)
 .text.tzset    0x00000000       0x1c /opt/devkitpro/devkitARM/bin/../lib/gcc/arm-none-eabi/12.2.0/../../../../arm-none-eabi/lib/libg.a(libc_a-tzset.o)
 .text          0x00000000        0x0 /opt/devkitpro/devkitARM/bin/../lib/gcc/arm-none-eabi/12.2.0/../../../../arm-none-eabi/lib/libg.a(libc_a-tzset_r.o)
 .data          0x00000000        0x0 /opt/devkitpro/devkitARM/bin/../lib/gcc/arm-none-eabi/12.2.0/../../../../arm-none-eabi/lib/libg.a(libc_a-tzset_r.o)
 .bss           0x00000000        0x0 /opt/devkitpro/devkitARM/bin/../lib/gcc/arm-none-eabi/12.2.0/../../../../arm-none-eabi/lib/libg.a(libc_a-tzset_r.o)
 .text._tzset_r
                0x00000000       0x20 /opt/devkitpro/devkitARM/bin/../lib/gcc/arm-none-eabi/12.2.0/../../../../arm-none-eabi/lib/libg.a(libc_a-tzset_r.o)
 .text          0x00000000        0x0 /opt/devkitpro/devkitARM/bin/../lib/gcc/arm-none-eabi/12.2.0/../../../../arm-none-eabi/lib/libg.a(libc_a-tzvars.o)
 .data          0x00000000        0x0 /opt/devkitpro/devkitARM/bin/../lib/gcc/arm-none-eabi/12.2.0/../../../../arm-none-eabi/lib/libg.a(libc_a-tzvars.o)
 .bss           0x00000000        0x0 /opt/devkitpro/devkitARM/bin/../lib/gcc/arm-none-eabi/12.2.0/../../../../arm-none-eabi/lib/libg.a(libc_a-tzvars.o)
 .text          0x00000000        0x0 /opt/devkitpro/devkitARM/bin/../lib/gcc/arm-none-eabi/12.2.0/../../../../arm-none-eabi/lib/libg.a(libc_a-locale.o)
 .data          0x00000000        0x0 /opt/devkitpro/devkitARM/bin/../lib/gcc/arm-none-eabi/12.2.0/../../../../arm-none-eabi/lib/libg.a(libc_a-locale.o)
 .bss           0x00000000        0x0 /opt/devkitpro/devkitARM/bin/../lib/gcc/arm-none-eabi/12.2.0/../../../../arm-none-eabi/lib/libg.a(libc_a-locale.o)
 .rodata.currentlocale.str1.4
                0x00000000        0x2 /opt/devkitpro/devkitARM/bin/../lib/gcc/arm-none-eabi/12.2.0/../../../../arm-none-eabi/lib/libg.a(libc_a-locale.o)
 .text.currentlocale
                0x00000000       0x90 /opt/devkitpro/devkitARM/bin/../lib/gcc/arm-none-eabi/12.2.0/../../../../arm-none-eabi/lib/libg.a(libc_a-locale.o)
 .rodata.__loadlocale.str1.4
                0x00000000       0xd6 /opt/devkitpro/devkitARM/bin/../lib/gcc/arm-none-eabi/12.2.0/../../../../arm-none-eabi/lib/libg.a(libc_a-locale.o)
 .text.__loadlocale
                0x00000000      0x840 /opt/devkitpro/devkitARM/bin/../lib/gcc/arm-none-eabi/12.2.0/../../../../arm-none-eabi/lib/libg.a(libc_a-locale.o)
 .rodata.__get_locale_env.str1.4
                0x00000000        0xd /opt/devkitpro/devkitARM/bin/../lib/gcc/arm-none-eabi/12.2.0/../../../../arm-none-eabi/lib/libg.a(libc_a-locale.o)
 .text.__get_locale_env
                0x00000000       0x94 /opt/devkitpro/devkitARM/bin/../lib/gcc/arm-none-eabi/12.2.0/../../../../arm-none-eabi/lib/libg.a(libc_a-locale.o)
 .text._setlocale_r
                0x00000000      0x334 /opt/devkitpro/devkitARM/bin/../lib/gcc/arm-none-eabi/12.2.0/../../../../arm-none-eabi/lib/libg.a(libc_a-locale.o)
 .text.setlocale
                0x00000000       0x20 /opt/devkitpro/devkitARM/bin/../lib/gcc/arm-none-eabi/12.2.0/../../../../arm-none-eabi/lib/libg.a(libc_a-locale.o)
 .bss.saved_categories.0
                0x00000000       0xe0 /opt/devkitpro/devkitARM/bin/../lib/gcc/arm-none-eabi/12.2.0/../../../../arm-none-eabi/lib/libg.a(libc_a-locale.o)
 .bss.new_categories.1
                0x00000000       0xe0 /opt/devkitpro/devkitARM/bin/../lib/gcc/arm-none-eabi/12.2.0/../../../../arm-none-eabi/lib/libg.a(libc_a-locale.o)
 .bss.global_locale_string
                0x00000000       0xe7 /opt/devkitpro/devkitARM/bin/../lib/gcc/arm-none-eabi/12.2.0/../../../../arm-none-eabi/lib/libg.a(libc_a-locale.o)
 .rodata.__C_locale
                0x00000000      0x16c /opt/devkitpro/devkitARM/bin/../lib/gcc/arm-none-eabi/12.2.0/../../../../arm-none-eabi/lib/libg.a(libc_a-locale.o)
 .data.__default_locale
                0x00000000       0x20 /opt/devkitpro/devkitARM/bin/../lib/gcc/arm-none-eabi/12.2.0/../../../../arm-none-eabi/lib/libg.a(libc_a-locale.o)
 .rodata.categories
                0x00000000       0x1c /opt/devkitpro/devkitARM/bin/../lib/gcc/arm-none-eabi/12.2.0/../../../../arm-none-eabi/lib/libg.a(libc_a-locale.o)
 .bss._PathLocale
                0x00000000        0x4 /opt/devkitpro/devkitARM/bin/../lib/gcc/arm-none-eabi/12.2.0/../../../../arm-none-eabi/lib/libg.a(libc_a-locale.o)
 .text          0x00000000        0x0 /opt/devkitpro/devkitARM/bin/../lib/gcc/arm-none-eabi/12.2.0/../../../../arm-none-eabi/lib/libg.a(libc_a-localeconv.o)
 .data          0x00000000        0x0 /opt/devkitpro/devkitARM/bin/../lib/gcc/arm-none-eabi/12.2.0/../../../../arm-none-eabi/lib/libg.a(libc_a-localeconv.o)
 .bss           0x00000000        0x0 /opt/devkitpro/devkitARM/bin/../lib/gcc/arm-none-eabi/12.2.0/../../../../arm-none-eabi/lib/libg.a(libc_a-localeconv.o)
 .text.__localeconv_l
                0x00000000        0x8 /opt/devkitpro/devkitARM/bin/../lib/gcc/arm-none-eabi/12.2.0/../../../../arm-none-eabi/lib/libg.a(libc_a-localeconv.o)
 .text.localeconv
                0x00000000       0x28 /opt/devkitpro/devkitARM/bin/../lib/gcc/arm-none-eabi/12.2.0/../../../../arm-none-eabi/lib/libg.a(libc_a-localeconv.o)
 .text          0x00000000        0x0 /opt/devkitpro/devkitARM/bin/../lib/gcc/arm-none-eabi/12.2.0/../../../../arm-none-eabi/lib/libg.a(libc_a-impure.o)
 .data          0x00000000        0x0 /opt/devkitpro/devkitARM/bin/../lib/gcc/arm-none-eabi/12.2.0/../../../../arm-none-eabi/lib/libg.a(libc_a-impure.o)
 .bss           0x00000000        0x0 /opt/devkitpro/devkitARM/bin/../lib/gcc/arm-none-eabi/12.2.0/../../../../arm-none-eabi/lib/libg.a(libc_a-impure.o)
 .text          0x00000000        0x0 /opt/devkitpro/devkitARM/bin/../lib/gcc/arm-none-eabi/12.2.0/../../../../arm-none-eabi/lib/libg.a(libc_a-errno.o)
 .data          0x00000000        0x0 /opt/devkitpro/devkitARM/bin/../lib/gcc/arm-none-eabi/12.2.0/../../../../arm-none-eabi/lib/libg.a(libc_a-errno.o)
 .bss           0x00000000        0x0 /opt/devkitpro/devkitARM/bin/../lib/gcc/arm-none-eabi/12.2.0/../../../../arm-none-eabi/lib/libg.a(libc_a-errno.o)
 .text          0x00000000        0x0 /opt/devkitpro/devkitARM/bin/../lib/gcc/arm-none-eabi/12.2.0/../../../../arm-none-eabi/lib/libg.a(libc_a-init.o)
 .data          0x00000000        0x0 /opt/devkitpro/devkitARM/bin/../lib/gcc/arm-none-eabi/12.2.0/../../../../arm-none-eabi/lib/libg.a(libc_a-init.o)
 .bss           0x00000000        0x0 /opt/devkitpro/devkitARM/bin/../lib/gcc/arm-none-eabi/12.2.0/../../../../arm-none-eabi/lib/libg.a(libc_a-init.o)
 .text          0x00000000        0x0 /opt/devkitpro/devkitARM/bin/../lib/gcc/arm-none-eabi/12.2.0/../../../../arm-none-eabi/lib/libg.a(libc_a-sysclose.o)
 .data          0x00000000        0x0 /opt/devkitpro/devkitARM/bin/../lib/gcc/arm-none-eabi/12.2.0/../../../../arm-none-eabi/lib/libg.a(libc_a-sysclose.o)
 .bss           0x00000000        0x0 /opt/devkitpro/devkitARM/bin/../lib/gcc/arm-none-eabi/12.2.0/../../../../arm-none-eabi/lib/libg.a(libc_a-sysclose.o)
 .text.close    0x00000000       0x1c /opt/devkitpro/devkitARM/bin/../lib/gcc/arm-none-eabi/12.2.0/../../../../arm-none-eabi/lib/libg.a(libc_a-sysclose.o)
 .comment       0x00000000       0x24 /opt/devkitpro/devkitARM/bin/../lib/gcc/arm-none-eabi/12.2.0/../../../../arm-none-eabi/lib/libg.a(libc_a-sysclose.o)
 .ARM.attributes
                0x00000000       0x2a /opt/devkitpro/devkitARM/bin/../lib/gcc/arm-none-eabi/12.2.0/../../../../arm-none-eabi/lib/libg.a(libc_a-sysclose.o)
 .text          0x00000000        0x0 /opt/devkitpro/devkitARM/bin/../lib/gcc/arm-none-eabi/12.2.0/../../../../arm-none-eabi/lib/libg.a(libc_a-syslseek.o)
 .data          0x00000000        0x0 /opt/devkitpro/devkitARM/bin/../lib/gcc/arm-none-eabi/12.2.0/../../../../arm-none-eabi/lib/libg.a(libc_a-syslseek.o)
 .bss           0x00000000        0x0 /opt/devkitpro/devkitARM/bin/../lib/gcc/arm-none-eabi/12.2.0/../../../../arm-none-eabi/lib/libg.a(libc_a-syslseek.o)
 .text          0x00000000        0x0 /opt/devkitpro/devkitARM/bin/../lib/gcc/arm-none-eabi/12.2.0/../../../../arm-none-eabi/lib/libg.a(libc_a-sysopen.o)
 .data          0x00000000        0x0 /opt/devkitpro/devkitARM/bin/../lib/gcc/arm-none-eabi/12.2.0/../../../../arm-none-eabi/lib/libg.a(libc_a-sysopen.o)
 .bss           0x00000000        0x0 /opt/devkitpro/devkitARM/bin/../lib/gcc/arm-none-eabi/12.2.0/../../../../arm-none-eabi/lib/libg.a(libc_a-sysopen.o)
 .text          0x00000000        0x0 /opt/devkitpro/devkitARM/bin/../lib/gcc/arm-none-eabi/12.2.0/../../../../arm-none-eabi/lib/libg.a(libc_a-sysread.o)
 .data          0x00000000        0x0 /opt/devkitpro/devkitARM/bin/../lib/gcc/arm-none-eabi/12.2.0/../../../../arm-none-eabi/lib/libg.a(libc_a-sysread.o)
 .bss           0x00000000        0x0 /opt/devkitpro/devkitARM/bin/../lib/gcc/arm-none-eabi/12.2.0/../../../../arm-none-eabi/lib/libg.a(libc_a-sysread.o)
 .text          0x00000000        0x0 /opt/devkitpro/devkitARM/bin/../lib/gcc/arm-none-eabi/12.2.0/../../../../arm-none-eabi/lib/libg.a(libc_a-access.o)
 .data          0x00000000        0x0 /opt/devkitpro/devkitARM/bin/../lib/gcc/arm-none-eabi/12.2.0/../../../../arm-none-eabi/lib/libg.a(libc_a-access.o)
 .bss           0x00000000        0x0 /opt/devkitpro/devkitARM/bin/../lib/gcc/arm-none-eabi/12.2.0/../../../../arm-none-eabi/lib/libg.a(libc_a-access.o)
 .data          0x00000000        0x0 /opt/devkitpro/devkitARM/bin/../lib/gcc/arm-none-eabi/12.2.0/../../../../arm-none-eabi/lib/libg.a(libc_a-strcmp.o)
 .bss           0x00000000        0x0 /opt/devkitpro/devkitARM/bin/../lib/gcc/arm-none-eabi/12.2.0/../../../../arm-none-eabi/lib/libg.a(libc_a-strcmp.o)
 .text          0x00000000        0x0 /opt/devkitpro/devkitARM/bin/../lib/gcc/arm-none-eabi/12.2.0/../../../../arm-none-eabi/lib/libg.a(libc_a-strcpy.o)
 .data          0x00000000        0x0 /opt/devkitpro/devkitARM/bin/../lib/gcc/arm-none-eabi/12.2.0/../../../../arm-none-eabi/lib/libg.a(libc_a-strcpy.o)
 .bss           0x00000000        0x0 /opt/devkitpro/devkitARM/bin/../lib/gcc/arm-none-eabi/12.2.0/../../../../arm-none-eabi/lib/libg.a(libc_a-strcpy.o)
 .text          0x00000000        0x0 /opt/devkitpro/devkitARM/bin/../lib/gcc/arm-none-eabi/12.2.0/../../../../arm-none-eabi/lib/libg.a(libc_a-memchr-stub.o)
 .data          0x00000000        0x0 /opt/devkitpro/devkitARM/bin/../lib/gcc/arm-none-eabi/12.2.0/../../../../arm-none-eabi/lib/libg.a(libc_a-memchr-stub.o)
 .bss           0x00000000        0x0 /opt/devkitpro/devkitARM/bin/../lib/gcc/arm-none-eabi/12.2.0/../../../../arm-none-eabi/lib/libg.a(libc_a-memchr-stub.o)
 .text          0x00000000        0x0 /opt/devkitpro/devkitARM/bin/../lib/gcc/arm-none-eabi/12.2.0/../../../../arm-none-eabi/lib/libg.a(libc_a-memcpy-stub.o)
 .data          0x00000000        0x0 /opt/devkitpro/devkitARM/bin/../lib/gcc/arm-none-eabi/12.2.0/../../../../arm-none-eabi/lib/libg.a(libc_a-memcpy-stub.o)
 .bss           0x00000000        0x0 /opt/devkitpro/devkitARM/bin/../lib/gcc/arm-none-eabi/12.2.0/../../../../arm-none-eabi/lib/libg.a(libc_a-memcpy-stub.o)
 .text          0x00000000        0x0 /opt/devkitpro/devkitARM/bin/../lib/gcc/arm-none-eabi/12.2.0/../../../../arm-none-eabi/lib/libg.a(libc_a-div.o)
 .data          0x00000000        0x0 /opt/devkitpro/devkitARM/bin/../lib/gcc/arm-none-eabi/12.2.0/../../../../arm-none-eabi/lib/libg.a(libc_a-div.o)
 .bss           0x00000000        0x0 /opt/devkitpro/devkitARM/bin/../lib/gcc/arm-none-eabi/12.2.0/../../../../arm-none-eabi/lib/libg.a(libc_a-div.o)
 .text          0x00000000        0x0 /opt/devkitpro/devkitARM/bin/../lib/gcc/arm-none-eabi/12.2.0/../../../../arm-none-eabi/lib/libg.a(libc_a-freer.o)
 .data          0x00000000        0x0 /opt/devkitpro/devkitARM/bin/../lib/gcc/arm-none-eabi/12.2.0/../../../../arm-none-eabi/lib/libg.a(libc_a-freer.o)
 .bss           0x00000000        0x0 /opt/devkitpro/devkitARM/bin/../lib/gcc/arm-none-eabi/12.2.0/../../../../arm-none-eabi/lib/libg.a(libc_a-freer.o)
 .text          0x00000000        0x0 /opt/devkitpro/devkitARM/bin/../lib/gcc/arm-none-eabi/12.2.0/../../../../arm-none-eabi/lib/libg.a(libc_a-getenv_r.o)
 .data          0x00000000        0x0 /opt/devkitpro/devkitARM/bin/../lib/gcc/arm-none-eabi/12.2.0/../../../../arm-none-eabi/lib/libg.a(libc_a-getenv_r.o)
 .bss           0x00000000        0x0 /opt/devkitpro/devkitARM/bin/../lib/gcc/arm-none-eabi/12.2.0/../../../../arm-none-eabi/lib/libg.a(libc_a-getenv_r.o)
 .text          0x00000000        0x0 /opt/devkitpro/devkitARM/bin/../lib/gcc/arm-none-eabi/12.2.0/../../../../arm-none-eabi/lib/libg.a(libc_a-mbtowc_r.o)
 .data          0x00000000        0x0 /opt/devkitpro/devkitARM/bin/../lib/gcc/arm-none-eabi/12.2.0/../../../../arm-none-eabi/lib/libg.a(libc_a-mbtowc_r.o)
 .bss           0x00000000        0x0 /opt/devkitpro/devkitARM/bin/../lib/gcc/arm-none-eabi/12.2.0/../../../../arm-none-eabi/lib/libg.a(libc_a-mbtowc_r.o)
 .text._mbtowc_r
                0x00000000       0x58 /opt/devkitpro/devkitARM/bin/../lib/gcc/arm-none-eabi/12.2.0/../../../../arm-none-eabi/lib/libg.a(libc_a-mbtowc_r.o)
 .text.__ascii_mbtowc
                0x00000000       0x44 /opt/devkitpro/devkitARM/bin/../lib/gcc/arm-none-eabi/12.2.0/../../../../arm-none-eabi/lib/libg.a(libc_a-mbtowc_r.o)
 .text.__sjis_mbtowc
                0x00000000       0xd4 /opt/devkitpro/devkitARM/bin/../lib/gcc/arm-none-eabi/12.2.0/../../../../arm-none-eabi/lib/libg.a(libc_a-mbtowc_r.o)
 .text.__eucjp_mbtowc
                0x00000000      0x13c /opt/devkitpro/devkitARM/bin/../lib/gcc/arm-none-eabi/12.2.0/../../../../arm-none-eabi/lib/libg.a(libc_a-mbtowc_r.o)
 .text.__jis_mbtowc
                0x00000000      0x260 /opt/devkitpro/devkitARM/bin/../lib/gcc/arm-none-eabi/12.2.0/../../../../arm-none-eabi/lib/libg.a(libc_a-mbtowc_r.o)
 .rodata.JIS_action_table
                0x00000000       0x48 /opt/devkitpro/devkitARM/bin/../lib/gcc/arm-none-eabi/12.2.0/../../../../arm-none-eabi/lib/libg.a(libc_a-mbtowc_r.o)
 .rodata.JIS_state_table
                0x00000000       0x48 /opt/devkitpro/devkitARM/bin/../lib/gcc/arm-none-eabi/12.2.0/../../../../arm-none-eabi/lib/libg.a(libc_a-mbtowc_r.o)
 .text          0x00000000        0x0 /opt/devkitpro/devkitARM/bin/../lib/gcc/arm-none-eabi/12.2.0/../../../../arm-none-eabi/lib/libg.a(libc_a-strtol.o)
 .data          0x00000000        0x0 /opt/devkitpro/devkitARM/bin/../lib/gcc/arm-none-eabi/12.2.0/../../../../arm-none-eabi/lib/libg.a(libc_a-strtol.o)
 .bss           0x00000000        0x0 /opt/devkitpro/devkitARM/bin/../lib/gcc/arm-none-eabi/12.2.0/../../../../arm-none-eabi/lib/libg.a(libc_a-strtol.o)
 .text.strtol_l
                0x00000000       0x5c /opt/devkitpro/devkitARM/bin/../lib/gcc/arm-none-eabi/12.2.0/../../../../arm-none-eabi/lib/libg.a(libc_a-strtol.o)
 .text.strtol   0x00000000       0x68 /opt/devkitpro/devkitARM/bin/../lib/gcc/arm-none-eabi/12.2.0/../../../../arm-none-eabi/lib/libg.a(libc_a-strtol.o)
 .text          0x00000000        0x0 /opt/devkitpro/devkitARM/bin/../lib/gcc/arm-none-eabi/12.2.0/../../../../arm-none-eabi/lib/libg.a(libc_a-strtoul.o)
 .data          0x00000000        0x0 /opt/devkitpro/devkitARM/bin/../lib/gcc/arm-none-eabi/12.2.0/../../../../arm-none-eabi/lib/libg.a(libc_a-strtoul.o)
 .bss           0x00000000        0x0 /opt/devkitpro/devkitARM/bin/../lib/gcc/arm-none-eabi/12.2.0/../../../../arm-none-eabi/lib/libg.a(libc_a-strtoul.o)
 .text.strtoul_l
                0x00000000       0x28 /opt/devkitpro/devkitARM/bin/../lib/gcc/arm-none-eabi/12.2.0/../../../../arm-none-eabi/lib/libg.a(libc_a-strtoul.o)
 .text          0x00000000        0x0 /opt/devkitpro/devkitARM/bin/../lib/gcc/arm-none-eabi/12.2.0/../../../../arm-none-eabi/lib/libg.a(libc_a-wctomb_r.o)
 .data          0x00000000        0x0 /opt/devkitpro/devkitARM/bin/../lib/gcc/arm-none-eabi/12.2.0/../../../../arm-none-eabi/lib/libg.a(libc_a-wctomb_r.o)
 .bss           0x00000000        0x0 /opt/devkitpro/devkitARM/bin/../lib/gcc/arm-none-eabi/12.2.0/../../../../arm-none-eabi/lib/libg.a(libc_a-wctomb_r.o)
 .text._wctomb_r
                0x00000000       0x50 /opt/devkitpro/devkitARM/bin/../lib/gcc/arm-none-eabi/12.2.0/../../../../arm-none-eabi/lib/libg.a(libc_a-wctomb_r.o)
 .text.__ascii_wctomb
                0x00000000       0x30 /opt/devkitpro/devkitARM/bin/../lib/gcc/arm-none-eabi/12.2.0/../../../../arm-none-eabi/lib/libg.a(libc_a-wctomb_r.o)
 .text.__sjis_wctomb
                0x00000000       0x90 /opt/devkitpro/devkitARM/bin/../lib/gcc/arm-none-eabi/12.2.0/../../../../arm-none-eabi/lib/libg.a(libc_a-wctomb_r.o)
 .text.__eucjp_wctomb
                0x00000000       0xb8 /opt/devkitpro/devkitARM/bin/../lib/gcc/arm-none-eabi/12.2.0/../../../../arm-none-eabi/lib/libg.a(libc_a-wctomb_r.o)
 .text.__jis_wctomb
                0x00000000       0xd8 /opt/devkitpro/devkitARM/bin/../lib/gcc/arm-none-eabi/12.2.0/../../../../arm-none-eabi/lib/libg.a(libc_a-wctomb_r.o)
 .text          0x00000000        0x0 /opt/devkitpro/devkitARM/bin/../lib/gcc/arm-none-eabi/12.2.0/../../../../arm-none-eabi/lib/libg.a(libc_a-strtoll.o)
 .data          0x00000000        0x0 /opt/devkitpro/devkitARM/bin/../lib/gcc/arm-none-eabi/12.2.0/../../../../arm-none-eabi/lib/libg.a(libc_a-strtoll.o)
 .bss           0x00000000        0x0 /opt/devkitpro/devkitARM/bin/../lib/gcc/arm-none-eabi/12.2.0/../../../../arm-none-eabi/lib/libg.a(libc_a-strtoll.o)
 .text.strtoll_l
                0x00000000       0x28 /opt/devkitpro/devkitARM/bin/../lib/gcc/arm-none-eabi/12.2.0/../../../../arm-none-eabi/lib/libg.a(libc_a-strtoll.o)
 .text.strtoll  0x00000000       0x34 /opt/devkitpro/devkitARM/bin/../lib/gcc/arm-none-eabi/12.2.0/../../../../arm-none-eabi/lib/libg.a(libc_a-strtoll.o)
 .text          0x00000000        0x0 /opt/devkitpro/devkitARM/bin/../lib/gcc/arm-none-eabi/12.2.0/../../../../arm-none-eabi/lib/libg.a(libc_a-strtoull.o)
 .data          0x00000000        0x0 /opt/devkitpro/devkitARM/bin/../lib/gcc/arm-none-eabi/12.2.0/../../../../arm-none-eabi/lib/libg.a(libc_a-strtoull.o)
 .bss           0x00000000        0x0 /opt/devkitpro/devkitARM/bin/../lib/gcc/arm-none-eabi/12.2.0/../../../../arm-none-eabi/lib/libg.a(libc_a-strtoull.o)
 .text.strtoull_l
                0x00000000       0x28 /opt/devkitpro/devkitARM/bin/../lib/gcc/arm-none-eabi/12.2.0/../../../../arm-none-eabi/lib/libg.a(libc_a-strtoull.o)
 .text.strtoull
                0x00000000       0x34 /opt/devkitpro/devkitARM/bin/../lib/gcc/arm-none-eabi/12.2.0/../../../../arm-none-eabi/lib/libg.a(libc_a-strtoull.o)
 .text          0x00000000        0x0 /opt/devkitpro/devkitARM/bin/../lib/gcc/arm-none-eabi/12.2.0/../../../../arm-none-eabi/lib/libg.a(libc_a-malign.o)
 .data          0x00000000        0x0 /opt/devkitpro/devkitARM/bin/../lib/gcc/arm-none-eabi/12.2.0/../../../../arm-none-eabi/lib/libg.a(libc_a-malign.o)
 .bss           0x00000000        0x0 /opt/devkitpro/devkitARM/bin/../lib/gcc/arm-none-eabi/12.2.0/../../../../arm-none-eabi/lib/libg.a(libc_a-malign.o)
 .text          0x00000000        0x0 /opt/devkitpro/devkitARM/bin/../lib/gcc/arm-none-eabi/12.2.0/../../../../arm-none-eabi/lib/libg.a(libc_a-malignr.o)
 .data          0x00000000        0x0 /opt/devkitpro/devkitARM/bin/../lib/gcc/arm-none-eabi/12.2.0/../../../../arm-none-eabi/lib/libg.a(libc_a-malignr.o)
 .bss           0x00000000        0x0 /opt/devkitpro/devkitARM/bin/../lib/gcc/arm-none-eabi/12.2.0/../../../../arm-none-eabi/lib/libg.a(libc_a-malignr.o)
 .text          0x00000000        0x0 /opt/devkitpro/devkitARM/bin/../lib/gcc/arm-none-eabi/12.2.0/../../../../arm-none-eabi/lib/libg.a(libc_a-mbsnrtowcs.o)
 .data          0x00000000        0x0 /opt/devkitpro/devkitARM/bin/../lib/gcc/arm-none-eabi/12.2.0/../../../../arm-none-eabi/lib/libg.a(libc_a-mbsnrtowcs.o)
 .bss           0x00000000        0x0 /opt/devkitpro/devkitARM/bin/../lib/gcc/arm-none-eabi/12.2.0/../../../../arm-none-eabi/lib/libg.a(libc_a-mbsnrtowcs.o)
 .text.mbsnrtowcs
                0x00000000       0x44 /opt/devkitpro/devkitARM/bin/../lib/gcc/arm-none-eabi/12.2.0/../../../../arm-none-eabi/lib/libg.a(libc_a-mbsnrtowcs.o)
 .text          0x00000000        0x0 /opt/devkitpro/devkitARM/bin/../lib/gcc/arm-none-eabi/12.2.0/../../../../arm-none-eabi/lib/libg.a(libc_a-wcsrtombs.o)
 .data          0x00000000        0x0 /opt/devkitpro/devkitARM/bin/../lib/gcc/arm-none-eabi/12.2.0/../../../../arm-none-eabi/lib/libg.a(libc_a-wcsrtombs.o)
 .bss           0x00000000        0x0 /opt/devkitpro/devkitARM/bin/../lib/gcc/arm-none-eabi/12.2.0/../../../../arm-none-eabi/lib/libg.a(libc_a-wcsrtombs.o)
 .text.wcsrtombs
                0x00000000       0x40 /opt/devkitpro/devkitARM/bin/../lib/gcc/arm-none-eabi/12.2.0/../../../../arm-none-eabi/lib/libg.a(libc_a-wcsrtombs.o)
 .text          0x00000000        0x0 /opt/devkitpro/devkitARM/bin/../lib/gcc/arm-none-eabi/12.2.0/../../../../arm-none-eabi/lib/libg.a(libc_a-iswspace.o)
 .data          0x00000000        0x0 /opt/devkitpro/devkitARM/bin/../lib/gcc/arm-none-eabi/12.2.0/../../../../arm-none-eabi/lib/libg.a(libc_a-iswspace.o)
 .bss           0x00000000        0x0 /opt/devkitpro/devkitARM/bin/../lib/gcc/arm-none-eabi/12.2.0/../../../../arm-none-eabi/lib/libg.a(libc_a-iswspace.o)
 .text          0x00000000        0x0 /opt/devkitpro/devkitARM/bin/../lib/gcc/arm-none-eabi/12.2.0/../../../../arm-none-eabi/lib/libg.a(libc_a-iswspace_l.o)
 .data          0x00000000        0x0 /opt/devkitpro/devkitARM/bin/../lib/gcc/arm-none-eabi/12.2.0/../../../../arm-none-eabi/lib/libg.a(libc_a-iswspace_l.o)
 .bss           0x00000000        0x0 /opt/devkitpro/devkitARM/bin/../lib/gcc/arm-none-eabi/12.2.0/../../../../arm-none-eabi/lib/libg.a(libc_a-iswspace_l.o)
 .text          0x00000000        0x0 /opt/devkitpro/devkitARM/bin/../lib/gcc/arm-none-eabi/12.2.0/../../../../arm-none-eabi/lib/libg.a(libc_a-towctrans.o)
 .data          0x00000000        0x0 /opt/devkitpro/devkitARM/bin/../lib/gcc/arm-none-eabi/12.2.0/../../../../arm-none-eabi/lib/libg.a(libc_a-towctrans.o)
 .bss           0x00000000        0x0 /opt/devkitpro/devkitARM/bin/../lib/gcc/arm-none-eabi/12.2.0/../../../../arm-none-eabi/lib/libg.a(libc_a-towctrans.o)
 .text._towctrans_r
                0x00000000       0x2c /opt/devkitpro/devkitARM/bin/../lib/gcc/arm-none-eabi/12.2.0/../../../../arm-none-eabi/lib/libg.a(libc_a-towctrans.o)
 .text          0x00000000        0x0 /opt/devkitpro/devkitARM/bin/../lib/gcc/arm-none-eabi/12.2.0/../../../../arm-none-eabi/lib/libg.a(libc_a-towctrans_l.o)
 .data          0x00000000        0x0 /opt/devkitpro/devkitARM/bin/../lib/gcc/arm-none-eabi/12.2.0/../../../../arm-none-eabi/lib/libg.a(libc_a-towctrans_l.o)
 .bss           0x00000000        0x0 /opt/devkitpro/devkitARM/bin/../lib/gcc/arm-none-eabi/12.2.0/../../../../arm-none-eabi/lib/libg.a(libc_a-towctrans_l.o)
 .text          0x00000000        0x0 /opt/devkitpro/devkitARM/bin/../lib/gcc/arm-none-eabi/12.2.0/../../../../arm-none-eabi/lib/libg.a(libc_a-svfiprintf.o)
 .data          0x00000000        0x0 /opt/devkitpro/devkitARM/bin/../lib/gcc/arm-none-eabi/12.2.0/../../../../arm-none-eabi/lib/libg.a(libc_a-svfiprintf.o)
 .bss           0x00000000        0x0 /opt/devkitpro/devkitARM/bin/../lib/gcc/arm-none-eabi/12.2.0/../../../../arm-none-eabi/lib/libg.a(libc_a-svfiprintf.o)
 .text.get_arg  0x00000000      0x684 /opt/devkitpro/devkitARM/bin/../lib/gcc/arm-none-eabi/12.2.0/../../../../arm-none-eabi/lib/libg.a(libc_a-svfiprintf.o)
 .rodata._svfiprintf_r.str1.1
                0x00000000       0x29 /opt/devkitpro/devkitARM/bin/../lib/gcc/arm-none-eabi/12.2.0/../../../../arm-none-eabi/lib/libg.a(libc_a-svfiprintf.o)
 .text._svfiprintf_r
                0x00000000     0x2264 /opt/devkitpro/devkitARM/bin/../lib/gcc/arm-none-eabi/12.2.0/../../../../arm-none-eabi/lib/libg.a(libc_a-svfiprintf.o)
 .rodata.zeroes.0
                0x00000000       0x10 /opt/devkitpro/devkitARM/bin/../lib/gcc/arm-none-eabi/12.2.0/../../../../arm-none-eabi/lib/libg.a(libc_a-svfiprintf.o)
 .rodata.blanks.1
                0x00000000       0x10 /opt/devkitpro/devkitARM/bin/../lib/gcc/arm-none-eabi/12.2.0/../../../../arm-none-eabi/lib/libg.a(libc_a-svfiprintf.o)
 .text          0x00000000        0x0 /opt/devkitpro/devkitARM/bin/../lib/gcc/arm-none-eabi/12.2.0/../../../../arm-none-eabi/lib/libg.a(libc_a-svfprintf.o)
 .data          0x00000000        0x0 /opt/devkitpro/devkitARM/bin/../lib/gcc/arm-none-eabi/12.2.0/../../../../arm-none-eabi/lib/libg.a(libc_a-svfprintf.o)
 .bss           0x00000000        0x0 /opt/devkitpro/devkitARM/bin/../lib/gcc/arm-none-eabi/12.2.0/../../../../arm-none-eabi/lib/libg.a(libc_a-svfprintf.o)
 .text          0x00000000        0x0 /opt/devkitpro/devkitARM/bin/../lib/gcc/arm-none-eabi/12.2.0/../../../../arm-none-eabi/lib/libg.a(libc_a-flags.o)
 .data          0x00000000        0x0 /opt/devkitpro/devkitARM/bin/../lib/gcc/arm-none-eabi/12.2.0/../../../../arm-none-eabi/lib/libg.a(libc_a-flags.o)
 .bss           0x00000000        0x0 /opt/devkitpro/devkitARM/bin/../lib/gcc/arm-none-eabi/12.2.0/../../../../arm-none-eabi/lib/libg.a(libc_a-flags.o)
 .text          0x00000000        0x0 /opt/devkitpro/devkitARM/bin/../lib/gcc/arm-none-eabi/12.2.0/../../../../arm-none-eabi/lib/libg.a(libc_a-strcat.o)
 .data          0x00000000        0x0 /opt/devkitpro/devkitARM/bin/../lib/gcc/arm-none-eabi/12.2.0/../../../../arm-none-eabi/lib/libg.a(libc_a-strcat.o)
 .bss           0x00000000        0x0 /opt/devkitpro/devkitARM/bin/../lib/gcc/arm-none-eabi/12.2.0/../../../../arm-none-eabi/lib/libg.a(libc_a-strcat.o)
 .text.strcat   0x00000000       0x74 /opt/devkitpro/devkitARM/bin/../lib/gcc/arm-none-eabi/12.2.0/../../../../arm-none-eabi/lib/libg.a(libc_a-strcat.o)
 .comment       0x00000000       0x24 /opt/devkitpro/devkitARM/bin/../lib/gcc/arm-none-eabi/12.2.0/../../../../arm-none-eabi/lib/libg.a(libc_a-strcat.o)
 .ARM.attributes
                0x00000000       0x2a /opt/devkitpro/devkitARM/bin/../lib/gcc/arm-none-eabi/12.2.0/../../../../arm-none-eabi/lib/libg.a(libc_a-strcat.o)
 .text          0x00000000        0x0 /opt/devkitpro/devkitARM/bin/../lib/gcc/arm-none-eabi/12.2.0/../../../../arm-none-eabi/lib/libg.a(libc_a-strlcpy.o)
 .data          0x00000000        0x0 /opt/devkitpro/devkitARM/bin/../lib/gcc/arm-none-eabi/12.2.0/../../../../arm-none-eabi/lib/libg.a(libc_a-strlcpy.o)
 .bss           0x00000000        0x0 /opt/devkitpro/devkitARM/bin/../lib/gcc/arm-none-eabi/12.2.0/../../../../arm-none-eabi/lib/libg.a(libc_a-strlcpy.o)
 .text.strlcpy  0x00000000       0x44 /opt/devkitpro/devkitARM/bin/../lib/gcc/arm-none-eabi/12.2.0/../../../../arm-none-eabi/lib/libg.a(libc_a-strlcpy.o)
 .comment       0x00000000       0x24 /opt/devkitpro/devkitARM/bin/../lib/gcc/arm-none-eabi/12.2.0/../../../../arm-none-eabi/lib/libg.a(libc_a-strlcpy.o)
 .ARM.attributes
                0x00000000       0x2a /opt/devkitpro/devkitARM/bin/../lib/gcc/arm-none-eabi/12.2.0/../../../../arm-none-eabi/lib/libg.a(libc_a-strlcpy.o)
 .text          0x00000000        0x0 /opt/devkitpro/devkitARM/bin/../lib/gcc/arm-none-eabi/12.2.0/../../../../arm-none-eabi/lib/libg.a(libc_a-gettzinfo.o)
 .data          0x00000000        0x0 /opt/devkitpro/devkitARM/bin/../lib/gcc/arm-none-eabi/12.2.0/../../../../arm-none-eabi/lib/libg.a(libc_a-gettzinfo.o)
 .bss           0x00000000        0x0 /opt/devkitpro/devkitARM/bin/../lib/gcc/arm-none-eabi/12.2.0/../../../../arm-none-eabi/lib/libg.a(libc_a-gettzinfo.o)
 .text          0x00000000        0x0 /opt/devkitpro/devkitARM/bin/../lib/gcc/arm-none-eabi/12.2.0/../../../../arm-none-eabi/lib/libg.a(libc_a-gmtime_r.o)
 .data          0x00000000        0x0 /opt/devkitpro/devkitARM/bin/../lib/gcc/arm-none-eabi/12.2.0/../../../../arm-none-eabi/lib/libg.a(libc_a-gmtime_r.o)
 .bss           0x00000000        0x0 /opt/devkitpro/devkitARM/bin/../lib/gcc/arm-none-eabi/12.2.0/../../../../arm-none-eabi/lib/libg.a(libc_a-gmtime_r.o)
 .text          0x00000000        0x0 /opt/devkitpro/devkitARM/bin/../lib/gcc/arm-none-eabi/12.2.0/../../../../arm-none-eabi/lib/libg.a(libc_a-sysstat.o)
 .data          0x00000000        0x0 /opt/devkitpro/devkitARM/bin/../lib/gcc/arm-none-eabi/12.2.0/../../../../arm-none-eabi/lib/libg.a(libc_a-sysstat.o)
 .bss           0x00000000        0x0 /opt/devkitpro/devkitARM/bin/../lib/gcc/arm-none-eabi/12.2.0/../../../../arm-none-eabi/lib/libg.a(libc_a-sysstat.o)
 .text          0x00000000        0x0 /opt/devkitpro/devkitARM/bin/../lib/gcc/arm-none-eabi/12.2.0/../../../../arm-none-eabi/lib/libg.a(libm_a-s_frexp.o)
 .data          0x00000000        0x0 /opt/devkitpro/devkitARM/bin/../lib/gcc/arm-none-eabi/12.2.0/../../../../arm-none-eabi/lib/libg.a(libm_a-s_frexp.o)
 .bss           0x00000000        0x0 /opt/devkitpro/devkitARM/bin/../lib/gcc/arm-none-eabi/12.2.0/../../../../arm-none-eabi/lib/libg.a(libm_a-s_frexp.o)
 .text          0x00000000        0x0 /opt/devkitpro/devkitARM/bin/../lib/gcc/arm-none-eabi/12.2.0/../../../../arm-none-eabi/lib/libg.a(libc_a-dtoa.o)
 .data          0x00000000        0x0 /opt/devkitpro/devkitARM/bin/../lib/gcc/arm-none-eabi/12.2.0/../../../../arm-none-eabi/lib/libg.a(libc_a-dtoa.o)
 .bss           0x00000000        0x0 /opt/devkitpro/devkitARM/bin/../lib/gcc/arm-none-eabi/12.2.0/../../../../arm-none-eabi/lib/libg.a(libc_a-dtoa.o)
 .text          0x00000000        0x0 /opt/devkitpro/devkitARM/bin/../lib/gcc/arm-none-eabi/12.2.0/../../../../arm-none-eabi/lib/libg.a(libc_a-environ.o)
 .data          0x00000000        0x0 /opt/devkitpro/devkitARM/bin/../lib/gcc/arm-none-eabi/12.2.0/../../../../arm-none-eabi/lib/libg.a(libc_a-environ.o)
 .bss           0x00000000        0x0 /opt/devkitpro/devkitARM/bin/../lib/gcc/arm-none-eabi/12.2.0/../../../../arm-none-eabi/lib/libg.a(libc_a-environ.o)
 .text          0x00000000        0x0 /opt/devkitpro/devkitARM/bin/../lib/gcc/arm-none-eabi/12.2.0/../../../../arm-none-eabi/lib/libg.a(libc_a-envlock.o)
 .data          0x00000000        0x0 /opt/devkitpro/devkitARM/bin/../lib/gcc/arm-none-eabi/12.2.0/../../../../arm-none-eabi/lib/libg.a(libc_a-envlock.o)
 .bss           0x00000000        0x0 /opt/devkitpro/devkitARM/bin/../lib/gcc/arm-none-eabi/12.2.0/../../../../arm-none-eabi/lib/libg.a(libc_a-envlock.o)
 .text          0x00000000        0x0 /opt/devkitpro/devkitARM/bin/../lib/gcc/arm-none-eabi/12.2.0/../../../../arm-none-eabi/lib/libg.a(libc_a-mprec.o)
 .data          0x00000000        0x0 /opt/devkitpro/devkitARM/bin/../lib/gcc/arm-none-eabi/12.2.0/../../../../arm-none-eabi/lib/libg.a(libc_a-mprec.o)
 .bss           0x00000000        0x0 /opt/devkitpro/devkitARM/bin/../lib/gcc/arm-none-eabi/12.2.0/../../../../arm-none-eabi/lib/libg.a(libc_a-mprec.o)
 .text.__s2b    0x00000000      0x114 /opt/devkitpro/devkitARM/bin/../lib/gcc/arm-none-eabi/12.2.0/../../../../arm-none-eabi/lib/libg.a(libc_a-mprec.o)
 .text.__ulp    0x00000000       0x64 /opt/devkitpro/devkitARM/bin/../lib/gcc/arm-none-eabi/12.2.0/../../../../arm-none-eabi/lib/libg.a(libc_a-mprec.o)
 .text.__b2d    0x00000000       0xf0 /opt/devkitpro/devkitARM/bin/../lib/gcc/arm-none-eabi/12.2.0/../../../../arm-none-eabi/lib/libg.a(libc_a-mprec.o)
 .text.__ratio  0x00000000       0x84 /opt/devkitpro/devkitARM/bin/../lib/gcc/arm-none-eabi/12.2.0/../../../../arm-none-eabi/lib/libg.a(libc_a-mprec.o)
 .text._mprec_log10
                0x00000000       0x5c /opt/devkitpro/devkitARM/bin/../lib/gcc/arm-none-eabi/12.2.0/../../../../arm-none-eabi/lib/libg.a(libc_a-mprec.o)
 .text.__copybits
                0x00000000       0x8c /opt/devkitpro/devkitARM/bin/../lib/gcc/arm-none-eabi/12.2.0/../../../../arm-none-eabi/lib/libg.a(libc_a-mprec.o)
 .text.__any_on
                0x00000000       0x5c /opt/devkitpro/devkitARM/bin/../lib/gcc/arm-none-eabi/12.2.0/../../../../arm-none-eabi/lib/libg.a(libc_a-mprec.o)
 .rodata.__mprec_tinytens
                0x00000000       0x28 /opt/devkitpro/devkitARM/bin/../lib/gcc/arm-none-eabi/12.2.0/../../../../arm-none-eabi/lib/libg.a(libc_a-mprec.o)
 .text          0x00000000        0x0 /opt/devkitpro/devkitARM/bin/../lib/gcc/arm-none-eabi/12.2.0/../../../../arm-none-eabi/lib/libg.a(libc_a-wcsnrtombs.o)
 .data          0x00000000        0x0 /opt/devkitpro/devkitARM/bin/../lib/gcc/arm-none-eabi/12.2.0/../../../../arm-none-eabi/lib/libg.a(libc_a-wcsnrtombs.o)
 .bss           0x00000000        0x0 /opt/devkitpro/devkitARM/bin/../lib/gcc/arm-none-eabi/12.2.0/../../../../arm-none-eabi/lib/libg.a(libc_a-wcsnrtombs.o)
 .text.wcsnrtombs
                0x00000000       0x6c /opt/devkitpro/devkitARM/bin/../lib/gcc/arm-none-eabi/12.2.0/../../../../arm-none-eabi/lib/libg.a(libc_a-wcsnrtombs.o)
 .text          0x00000000        0x0 /opt/devkitpro/devkitARM/bin/../lib/gcc/arm-none-eabi/12.2.0/../../../../arm-none-eabi/lib/libg.a(libc_a-categories.o)
 .data          0x00000000        0x0 /opt/devkitpro/devkitARM/bin/../lib/gcc/arm-none-eabi/12.2.0/../../../../arm-none-eabi/lib/libg.a(libc_a-categories.o)
 .bss           0x00000000        0x0 /opt/devkitpro/devkitARM/bin/../lib/gcc/arm-none-eabi/12.2.0/../../../../arm-none-eabi/lib/libg.a(libc_a-categories.o)
 .text          0x00000000        0x0 /opt/devkitpro/devkitARM/bin/../lib/gcc/arm-none-eabi/12.2.0/../../../../arm-none-eabi/lib/libg.a(libc_a-assert.o)
 .data          0x00000000        0x0 /opt/devkitpro/devkitARM/bin/../lib/gcc/arm-none-eabi/12.2.0/../../../../arm-none-eabi/lib/libg.a(libc_a-assert.o)
 .bss           0x00000000        0x0 /opt/devkitpro/devkitARM/bin/../lib/gcc/arm-none-eabi/12.2.0/../../../../arm-none-eabi/lib/libg.a(libc_a-assert.o)
 .text.__assert
                0x00000000       0x10 /opt/devkitpro/devkitARM/bin/../lib/gcc/arm-none-eabi/12.2.0/../../../../arm-none-eabi/lib/libg.a(libc_a-assert.o)
 .text          0x00000000        0x0 /opt/devkitpro/devkitARM/bin/../lib/gcc/arm-none-eabi/12.2.0/../../../../arm-none-eabi/lib/libg.a(libc_a-fiprintf.o)
 .data          0x00000000        0x0 /opt/devkitpro/devkitARM/bin/../lib/gcc/arm-none-eabi/12.2.0/../../../../arm-none-eabi/lib/libg.a(libc_a-fiprintf.o)
 .bss           0x00000000        0x0 /opt/devkitpro/devkitARM/bin/../lib/gcc/arm-none-eabi/12.2.0/../../../../arm-none-eabi/lib/libg.a(libc_a-fiprintf.o)
 .text._fiprintf_r
                0x00000000       0x2c /opt/devkitpro/devkitARM/bin/../lib/gcc/arm-none-eabi/12.2.0/../../../../arm-none-eabi/lib/libg.a(libc_a-fiprintf.o)
 .text          0x00000000        0x0 /opt/devkitpro/devkitARM/bin/../lib/gcc/arm-none-eabi/12.2.0/../../../../arm-none-eabi/lib/libg.a(libc_a-abort.o)
 .data          0x00000000        0x0 /opt/devkitpro/devkitARM/bin/../lib/gcc/arm-none-eabi/12.2.0/../../../../arm-none-eabi/lib/libg.a(libc_a-abort.o)
 .bss           0x00000000        0x0 /opt/devkitpro/devkitARM/bin/../lib/gcc/arm-none-eabi/12.2.0/../../../../arm-none-eabi/lib/libg.a(libc_a-abort.o)
 .text          0x00000000        0x0 /opt/devkitpro/devkitARM/bin/../lib/gcc/arm-none-eabi/12.2.0/../../../../arm-none-eabi/lib/libg.a(libc_a-signal.o)
 .data          0x00000000        0x0 /opt/devkitpro/devkitARM/bin/../lib/gcc/arm-none-eabi/12.2.0/../../../../arm-none-eabi/lib/libg.a(libc_a-signal.o)
 .bss           0x00000000        0x0 /opt/devkitpro/devkitARM/bin/../lib/gcc/arm-none-eabi/12.2.0/../../../../arm-none-eabi/lib/libg.a(libc_a-signal.o)
 .text._init_signal_r
                0x00000000       0x54 /opt/devkitpro/devkitARM/bin/../lib/gcc/arm-none-eabi/12.2.0/../../../../arm-none-eabi/lib/libg.a(libc_a-signal.o)
 .text._signal_r
                0x00000000       0x84 /opt/devkitpro/devkitARM/bin/../lib/gcc/arm-none-eabi/12.2.0/../../../../arm-none-eabi/lib/libg.a(libc_a-signal.o)
 .text.__sigtramp_r
                0x00000000       0xb4 /opt/devkitpro/devkitARM/bin/../lib/gcc/arm-none-eabi/12.2.0/../../../../arm-none-eabi/lib/libg.a(libc_a-signal.o)
 .text.signal   0x00000000       0x7c /opt/devkitpro/devkitARM/bin/../lib/gcc/arm-none-eabi/12.2.0/../../../../arm-none-eabi/lib/libg.a(libc_a-signal.o)
 .text._init_signal
                0x00000000       0x58 /opt/devkitpro/devkitARM/bin/../lib/gcc/arm-none-eabi/12.2.0/../../../../arm-none-eabi/lib/libg.a(libc_a-signal.o)
 .text.__sigtramp
                0x00000000       0x18 /opt/devkitpro/devkitARM/bin/../lib/gcc/arm-none-eabi/12.2.0/../../../../arm-none-eabi/lib/libg.a(libc_a-signal.o)
 .text          0x00000000        0x0 /opt/devkitpro/devkitARM/bin/../lib/gcc/arm-none-eabi/12.2.0/../../../../arm-none-eabi/lib/libsysbase.a(libsysbase_libsysbase_a-_exit.o)
 .data          0x00000000        0x0 /opt/devkitpro/devkitARM/bin/../lib/gcc/arm-none-eabi/12.2.0/../../../../arm-none-eabi/lib/libsysbase.a(libsysbase_libsysbase_a-_exit.o)
 .bss           0x00000000        0x0 /opt/devkitpro/devkitARM/bin/../lib/gcc/arm-none-eabi/12.2.0/../../../../arm-none-eabi/lib/libsysbase.a(libsysbase_libsysbase_a-_exit.o)
 .text          0x00000000        0x0 /opt/devkitpro/devkitARM/bin/../lib/gcc/arm-none-eabi/12.2.0/../../../../arm-none-eabi/lib/libsysbase.a(libsysbase_libsysbase_a-build_argv.o)
 .data          0x00000000        0x0 /opt/devkitpro/devkitARM/bin/../lib/gcc/arm-none-eabi/12.2.0/../../../../arm-none-eabi/lib/libsysbase.a(libsysbase_libsysbase_a-build_argv.o)
 .bss           0x00000000        0x0 /opt/devkitpro/devkitARM/bin/../lib/gcc/arm-none-eabi/12.2.0/../../../../arm-none-eabi/lib/libsysbase.a(libsysbase_libsysbase_a-build_argv.o)
 .text          0x00000000        0x0 /opt/devkitpro/devkitARM/bin/../lib/gcc/arm-none-eabi/12.2.0/../../../../arm-none-eabi/lib/libsysbase.a(libsysbase_libsysbase_a-chdir.o)
 .data          0x00000000        0x0 /opt/devkitpro/devkitARM/bin/../lib/gcc/arm-none-eabi/12.2.0/../../../../arm-none-eabi/lib/libsysbase.a(libsysbase_libsysbase_a-chdir.o)
 .bss           0x00000000        0x0 /opt/devkitpro/devkitARM/bin/../lib/gcc/arm-none-eabi/12.2.0/../../../../arm-none-eabi/lib/libsysbase.a(libsysbase_libsysbase_a-chdir.o)
 .rodata.DIRECTORY_PARENT
                0x00000000        0x3 /opt/devkitpro/devkitARM/bin/../lib/gcc/arm-none-eabi/12.2.0/../../../../arm-none-eabi/lib/libsysbase.a(libsysbase_libsysbase_a-chdir.o)
 .rodata.DIRECTORY_THIS
                0x00000000        0x2 /opt/devkitpro/devkitARM/bin/../lib/gcc/arm-none-eabi/12.2.0/../../../../arm-none-eabi/lib/libsysbase.a(libsysbase_libsysbase_a-chdir.o)
 .rodata.DIRECTORY_SEPARATOR
                0x00000000        0x2 /opt/devkitpro/devkitARM/bin/../lib/gcc/arm-none-eabi/12.2.0/../../../../arm-none-eabi/lib/libsysbase.a(libsysbase_libsysbase_a-chdir.o)
 .text          0x00000000        0x0 /opt/devkitpro/devkitARM/bin/../lib/gcc/arm-none-eabi/12.2.0/../../../../arm-none-eabi/lib/libsysbase.a(libsysbase_libsysbase_a-fstat.o)
 .data          0x00000000        0x0 /opt/devkitpro/devkitARM/bin/../lib/gcc/arm-none-eabi/12.2.0/../../../../arm-none-eabi/lib/libsysbase.a(libsysbase_libsysbase_a-fstat.o)
 .bss           0x00000000        0x0 /opt/devkitpro/devkitARM/bin/../lib/gcc/arm-none-eabi/12.2.0/../../../../arm-none-eabi/lib/libsysbase.a(libsysbase_libsysbase_a-fstat.o)
 .text          0x00000000        0x0 /opt/devkitpro/devkitARM/bin/../lib/gcc/arm-none-eabi/12.2.0/../../../../arm-none-eabi/lib/libsysbase.a(libsysbase_libsysbase_a-getpid.o)
 .data          0x00000000        0x0 /opt/devkitpro/devkitARM/bin/../lib/gcc/arm-none-eabi/12.2.0/../../../../arm-none-eabi/lib/libsysbase.a(libsysbase_libsysbase_a-getpid.o)
 .bss           0x00000000        0x0 /opt/devkitpro/devkitARM/bin/../lib/gcc/arm-none-eabi/12.2.0/../../../../arm-none-eabi/lib/libsysbase.a(libsysbase_libsysbase_a-getpid.o)
 .text          0x00000000        0x0 /opt/devkitpro/devkitARM/bin/../lib/gcc/arm-none-eabi/12.2.0/../../../../arm-none-eabi/lib/libsysbase.a(libsysbase_libsysbase_a-getreent.o)
 .data          0x00000000        0x0 /opt/devkitpro/devkitARM/bin/../lib/gcc/arm-none-eabi/12.2.0/../../../../arm-none-eabi/lib/libsysbase.a(libsysbase_libsysbase_a-getreent.o)
 .bss           0x00000000        0x0 /opt/devkitpro/devkitARM/bin/../lib/gcc/arm-none-eabi/12.2.0/../../../../arm-none-eabi/lib/libsysbase.a(libsysbase_libsysbase_a-getreent.o)
 .text          0x00000000        0x0 /opt/devkitpro/devkitARM/bin/../lib/gcc/arm-none-eabi/12.2.0/../../../../arm-none-eabi/lib/libsysbase.a(libsysbase_libsysbase_a-gettod.o)
 .data          0x00000000        0x0 /opt/devkitpro/devkitARM/bin/../lib/gcc/arm-none-eabi/12.2.0/../../../../arm-none-eabi/lib/libsysbase.a(libsysbase_libsysbase_a-gettod.o)
 .bss           0x00000000        0x0 /opt/devkitpro/devkitARM/bin/../lib/gcc/arm-none-eabi/12.2.0/../../../../arm-none-eabi/lib/libsysbase.a(libsysbase_libsysbase_a-gettod.o)
 .text          0x00000000        0x0 /opt/devkitpro/devkitARM/bin/../lib/gcc/arm-none-eabi/12.2.0/../../../../arm-none-eabi/lib/libsysbase.a(libsysbase_libsysbase_a-handle_manager.o)
 .data          0x00000000        0x0 /opt/devkitpro/devkitARM/bin/../lib/gcc/arm-none-eabi/12.2.0/../../../../arm-none-eabi/lib/libsysbase.a(libsysbase_libsysbase_a-handle_manager.o)
 .bss           0x00000000        0x0 /opt/devkitpro/devkitARM/bin/../lib/gcc/arm-none-eabi/12.2.0/../../../../arm-none-eabi/lib/libsysbase.a(libsysbase_libsysbase_a-handle_manager.o)
 .text.dup      0x00000000       0x94 /opt/devkitpro/devkitARM/bin/../lib/gcc/arm-none-eabi/12.2.0/../../../../arm-none-eabi/lib/libsysbase.a(libsysbase_libsysbase_a-handle_manager.o)
 .text.dup2     0x00000000      0x130 /opt/devkitpro/devkitARM/bin/../lib/gcc/arm-none-eabi/12.2.0/../../../../arm-none-eabi/lib/libsysbase.a(libsysbase_libsysbase_a-handle_manager.o)
 .text          0x00000000        0x0 /opt/devkitpro/devkitARM/bin/../lib/gcc/arm-none-eabi/12.2.0/../../../../arm-none-eabi/lib/libsysbase.a(libsysbase_libsysbase_a-iosupport.o)
 .data          0x00000000        0x0 /opt/devkitpro/devkitARM/bin/../lib/gcc/arm-none-eabi/12.2.0/../../../../arm-none-eabi/lib/libsysbase.a(libsysbase_libsysbase_a-iosupport.o)
 .bss           0x00000000        0x0 /opt/devkitpro/devkitARM/bin/../lib/gcc/arm-none-eabi/12.2.0/../../../../arm-none-eabi/lib/libsysbase.a(libsysbase_libsysbase_a-iosupport.o)
 .text.RemoveDevice
                0x00000000       0x2c /opt/devkitpro/devkitARM/bin/../lib/gcc/arm-none-eabi/12.2.0/../../../../arm-none-eabi/lib/libsysbase.a(libsysbase_libsysbase_a-iosupport.o)
 .text          0x00000000        0x0 /opt/devkitpro/devkitARM/bin/../lib/gcc/arm-none-eabi/12.2.0/../../../../arm-none-eabi/lib/libsysbase.a(libsysbase_libsysbase_a-isatty.o)
 .data          0x00000000        0x0 /opt/devkitpro/devkitARM/bin/../lib/gcc/arm-none-eabi/12.2.0/../../../../arm-none-eabi/lib/libsysbase.a(libsysbase_libsysbase_a-isatty.o)
 .bss           0x00000000        0x0 /opt/devkitpro/devkitARM/bin/../lib/gcc/arm-none-eabi/12.2.0/../../../../arm-none-eabi/lib/libsysbase.a(libsysbase_libsysbase_a-isatty.o)
 .text          0x00000000        0x0 /opt/devkitpro/devkitARM/bin/../lib/gcc/arm-none-eabi/12.2.0/../../../../arm-none-eabi/lib/libsysbase.a(libsysbase_libsysbase_a-kill.o)
 .data          0x00000000        0x0 /opt/devkitpro/devkitARM/bin/../lib/gcc/arm-none-eabi/12.2.0/../../../../arm-none-eabi/lib/libsysbase.a(libsysbase_libsysbase_a-kill.o)
 .bss           0x00000000        0x0 /opt/devkitpro/devkitARM/bin/../lib/gcc/arm-none-eabi/12.2.0/../../../../arm-none-eabi/lib/libsysbase.a(libsysbase_libsysbase_a-kill.o)
 .text          0x00000000        0x0 /opt/devkitpro/devkitARM/bin/../lib/gcc/arm-none-eabi/12.2.0/../../../../arm-none-eabi/lib/libsysbase.a(libsysbase_libsysbase_a-lseek.o)
 .data          0x00000000        0x0 /opt/devkitpro/devkitARM/bin/../lib/gcc/arm-none-eabi/12.2.0/../../../../arm-none-eabi/lib/libsysbase.a(libsysbase_libsysbase_a-lseek.o)
 .bss           0x00000000        0x0 /opt/devkitpro/devkitARM/bin/../lib/gcc/arm-none-eabi/12.2.0/../../../../arm-none-eabi/lib/libsysbase.a(libsysbase_libsysbase_a-lseek.o)
 .text          0x00000000        0x0 /opt/devkitpro/devkitARM/bin/../lib/gcc/arm-none-eabi/12.2.0/../../../../arm-none-eabi/lib/libsysbase.a(libsysbase_libsysbase_a-malloc_vars.o)
 .data          0x00000000        0x0 /opt/devkitpro/devkitARM/bin/../lib/gcc/arm-none-eabi/12.2.0/../../../../arm-none-eabi/lib/libsysbase.a(libsysbase_libsysbase_a-malloc_vars.o)
 .bss           0x00000000        0x0 /opt/devkitpro/devkitARM/bin/../lib/gcc/arm-none-eabi/12.2.0/../../../../arm-none-eabi/lib/libsysbase.a(libsysbase_libsysbase_a-malloc_vars.o)
 .text          0x00000000        0x0 /opt/devkitpro/devkitARM/bin/../lib/gcc/arm-none-eabi/12.2.0/../../../../arm-none-eabi/lib/libsysbase.a(libsysbase_libsysbase_a-open.o)
 .data          0x00000000        0x0 /opt/devkitpro/devkitARM/bin/../lib/gcc/arm-none-eabi/12.2.0/../../../../arm-none-eabi/lib/libsysbase.a(libsysbase_libsysbase_a-open.o)
 .bss           0x00000000        0x0 /opt/devkitpro/devkitARM/bin/../lib/gcc/arm-none-eabi/12.2.0/../../../../arm-none-eabi/lib/libsysbase.a(libsysbase_libsysbase_a-open.o)
 .text          0x00000000        0x0 /opt/devkitpro/devkitARM/bin/../lib/gcc/arm-none-eabi/12.2.0/../../../../arm-none-eabi/lib/libsysbase.a(libsysbase_libsysbase_a-read.o)
 .data          0x00000000        0x0 /opt/devkitpro/devkitARM/bin/../lib/gcc/arm-none-eabi/12.2.0/../../../../arm-none-eabi/lib/libsysbase.a(libsysbase_libsysbase_a-read.o)
 .bss           0x00000000        0x0 /opt/devkitpro/devkitARM/bin/../lib/gcc/arm-none-eabi/12.2.0/../../../../arm-none-eabi/lib/libsysbase.a(libsysbase_libsysbase_a-read.o)
 .text          0x00000000        0x0 /opt/devkitpro/devkitARM/bin/../lib/gcc/arm-none-eabi/12.2.0/../../../../arm-none-eabi/lib/libsysbase.a(libsysbase_libsysbase_a-sbrk.o)
 .data          0x00000000        0x0 /opt/devkitpro/devkitARM/bin/../lib/gcc/arm-none-eabi/12.2.0/../../../../arm-none-eabi/lib/libsysbase.a(libsysbase_libsysbase_a-sbrk.o)
 .bss           0x00000000        0x0 /opt/devkitpro/devkitARM/bin/../lib/gcc/arm-none-eabi/12.2.0/../../../../arm-none-eabi/lib/libsysbase.a(libsysbase_libsysbase_a-sbrk.o)
 .text          0x00000000        0x0 /opt/devkitpro/devkitARM/bin/../lib/gcc/arm-none-eabi/12.2.0/../../../../arm-none-eabi/lib/libsysbase.a(libsysbase_libsysbase_a-stat.o)
 .data          0x00000000        0x0 /opt/devkitpro/devkitARM/bin/../lib/gcc/arm-none-eabi/12.2.0/../../../../arm-none-eabi/lib/libsysbase.a(libsysbase_libsysbase_a-stat.o)
 .bss           0x00000000        0x0 /opt/devkitpro/devkitARM/bin/../lib/gcc/arm-none-eabi/12.2.0/../../../../arm-none-eabi/lib/libsysbase.a(libsysbase_libsysbase_a-stat.o)
 .text          0x00000000        0x0 /opt/devkitpro/devkitARM/bin/../lib/gcc/arm-none-eabi/12.2.0/../../../../arm-none-eabi/lib/libsysbase.a(libsysbase_libsysbase_a-syscall_support.o)
 .data          0x00000000        0x0 /opt/devkitpro/devkitARM/bin/../lib/gcc/arm-none-eabi/12.2.0/../../../../arm-none-eabi/lib/libsysbase.a(libsysbase_libsysbase_a-syscall_support.o)
 .bss           0x00000000        0x0 /opt/devkitpro/devkitARM/bin/../lib/gcc/arm-none-eabi/12.2.0/../../../../arm-none-eabi/lib/libsysbase.a(libsysbase_libsysbase_a-syscall_support.o)
 .text.timespec2nsec
                0x00000000       0x2c /opt/devkitpro/devkitARM/bin/../lib/gcc/arm-none-eabi/12.2.0/../../../../arm-none-eabi/lib/libsysbase.a(libsysbase_libsysbase_a-syscall_support.o)
 .text.abstimespec2nsec
                0x00000000       0xe4 /opt/devkitpro/devkitARM/bin/../lib/gcc/arm-none-eabi/12.2.0/../../../../arm-none-eabi/lib/libsysbase.a(libsysbase_libsysbase_a-syscall_support.o)
 .text.__libc_lock_try_acquire
                0x00000000       0x28 /opt/devkitpro/devkitARM/bin/../lib/gcc/arm-none-eabi/12.2.0/../../../../arm-none-eabi/lib/libsysbase.a(libsysbase_libsysbase_a-syscall_support.o)
 .text.__libc_lock_try_acquire_recursive
                0x00000000       0x28 /opt/devkitpro/devkitARM/bin/../lib/gcc/arm-none-eabi/12.2.0/../../../../arm-none-eabi/lib/libsysbase.a(libsysbase_libsysbase_a-syscall_support.o)
 .text.__libc_cond_signal
                0x00000000       0x28 /opt/devkitpro/devkitARM/bin/../lib/gcc/arm-none-eabi/12.2.0/../../../../arm-none-eabi/lib/libsysbase.a(libsysbase_libsysbase_a-syscall_support.o)
 .text.__libc_cond_broadcast
                0x00000000       0x28 /opt/devkitpro/devkitARM/bin/../lib/gcc/arm-none-eabi/12.2.0/../../../../arm-none-eabi/lib/libsysbase.a(libsysbase_libsysbase_a-syscall_support.o)
 .text.__libc_cond_wait
                0x00000000       0x28 /opt/devkitpro/devkitARM/bin/../lib/gcc/arm-none-eabi/12.2.0/../../../../arm-none-eabi/lib/libsysbase.a(libsysbase_libsysbase_a-syscall_support.o)
 .text.__libc_cond_wait_recursive
                0x00000000       0x28 /opt/devkitpro/devkitARM/bin/../lib/gcc/arm-none-eabi/12.2.0/../../../../arm-none-eabi/lib/libsysbase.a(libsysbase_libsysbase_a-syscall_support.o)
 .text          0x00000000        0x0 /opt/devkitpro/devkitARM/bin/../lib/gcc/arm-none-eabi/12.2.0/../../../../arm-none-eabi/lib/libsysbase.a(libsysbase_libsysbase_a-write.o)
 .data          0x00000000        0x0 /opt/devkitpro/devkitARM/bin/../lib/gcc/arm-none-eabi/12.2.0/../../../../arm-none-eabi/lib/libsysbase.a(libsysbase_libsysbase_a-write.o)
 .bss           0x00000000        0x0 /opt/devkitpro/devkitARM/bin/../lib/gcc/arm-none-eabi/12.2.0/../../../../arm-none-eabi/lib/libsysbase.a(libsysbase_libsysbase_a-write.o)
 .text          0x00000000        0x0 /opt/devkitpro/devkitARM/bin/../lib/gcc/arm-none-eabi/12.2.0/../../../../arm-none-eabi/lib/libsysbase.a(libsysbase_libsysbase_a-clocks.o)
 .data          0x00000000        0x0 /opt/devkitpro/devkitARM/bin/../lib/gcc/arm-none-eabi/12.2.0/../../../../arm-none-eabi/lib/libsysbase.a(libsysbase_libsysbase_a-clocks.o)
 .bss           0x00000000        0x0 /opt/devkitpro/devkitARM/bin/../lib/gcc/arm-none-eabi/12.2.0/../../../../arm-none-eabi/lib/libsysbase.a(libsysbase_libsysbase_a-clocks.o)
 .text.clock_gettime
                0x00000000       0x38 /opt/devkitpro/devkitARM/bin/../lib/gcc/arm-none-eabi/12.2.0/../../../../arm-none-eabi/lib/libsysbase.a(libsysbase_libsysbase_a-clocks.o)
 .text.clock_settime
                0x00000000       0x38 /opt/devkitpro/devkitARM/bin/../lib/gcc/arm-none-eabi/12.2.0/../../../../arm-none-eabi/lib/libsysbase.a(libsysbase_libsysbase_a-clocks.o)
 .text.clock_getres
                0x00000000       0x38 /opt/devkitpro/devkitARM/bin/../lib/gcc/arm-none-eabi/12.2.0/../../../../arm-none-eabi/lib/libsysbase.a(libsysbase_libsysbase_a-clocks.o)
 .comment       0x00000000       0x24 /opt/devkitpro/devkitARM/bin/../lib/gcc/arm-none-eabi/12.2.0/../../../../arm-none-eabi/lib/libsysbase.a(libsysbase_libsysbase_a-clocks.o)
 .ARM.attributes
                0x00000000       0x2a /opt/devkitpro/devkitARM/bin/../lib/gcc/arm-none-eabi/12.2.0/../../../../arm-none-eabi/lib/libsysbase.a(libsysbase_libsysbase_a-clocks.o)
 .text          0x00000000      0x290 /opt/devkitpro/devkitARM/bin/../lib/gcc/arm-none-eabi/12.2.0/libgcc.a(_arm_muldf3.o)
 .data          0x00000000        0x0 /opt/devkitpro/devkitARM/bin/../lib/gcc/arm-none-eabi/12.2.0/libgcc.a(_arm_muldf3.o)
 .bss           0x00000000        0x0 /opt/devkitpro/devkitARM/bin/../lib/gcc/arm-none-eabi/12.2.0/libgcc.a(_arm_muldf3.o)
 .ARM.attributes
                0x00000000       0x1c /opt/devkitpro/devkitARM/bin/../lib/gcc/arm-none-eabi/12.2.0/libgcc.a(_arm_muldf3.o)
 .data          0x00000000        0x0 /opt/devkitpro/devkitARM/bin/../lib/gcc/arm-none-eabi/12.2.0/libgcc.a(_arm_addsubdf3.o)
 .bss           0x00000000        0x0 /opt/devkitpro/devkitARM/bin/../lib/gcc/arm-none-eabi/12.2.0/libgcc.a(_arm_addsubdf3.o)
 .data          0x00000000        0x0 /opt/devkitpro/devkitARM/bin/../lib/gcc/arm-none-eabi/12.2.0/libgcc.a(_arm_muldivdf3.o)
 .bss           0x00000000        0x0 /opt/devkitpro/devkitARM/bin/../lib/gcc/arm-none-eabi/12.2.0/libgcc.a(_arm_muldivdf3.o)
 .data          0x00000000        0x0 /opt/devkitpro/devkitARM/bin/../lib/gcc/arm-none-eabi/12.2.0/libgcc.a(_arm_cmpdf2.o)
 .bss           0x00000000        0x0 /opt/devkitpro/devkitARM/bin/../lib/gcc/arm-none-eabi/12.2.0/libgcc.a(_arm_cmpdf2.o)
 .data          0x00000000        0x0 /opt/devkitpro/devkitARM/bin/../lib/gcc/arm-none-eabi/12.2.0/libgcc.a(_arm_unorddf2.o)
 .bss           0x00000000        0x0 /opt/devkitpro/devkitARM/bin/../lib/gcc/arm-none-eabi/12.2.0/libgcc.a(_arm_unorddf2.o)
 .data          0x00000000        0x0 /opt/devkitpro/devkitARM/bin/../lib/gcc/arm-none-eabi/12.2.0/libgcc.a(_arm_fixdfsi.o)
 .bss           0x00000000        0x0 /opt/devkitpro/devkitARM/bin/../lib/gcc/arm-none-eabi/12.2.0/libgcc.a(_arm_fixdfsi.o)
 .data          0x00000000        0x0 /opt/devkitpro/devkitARM/bin/../lib/gcc/arm-none-eabi/12.2.0/libgcc.a(_aeabi_uldivmod.o)
 .bss           0x00000000        0x0 /opt/devkitpro/devkitARM/bin/../lib/gcc/arm-none-eabi/12.2.0/libgcc.a(_aeabi_uldivmod.o)
 .text          0x00000000        0x0 /opt/devkitpro/devkitARM/bin/../lib/gcc/arm-none-eabi/12.2.0/crtend.o
 .data          0x00000000        0x0 /opt/devkitpro/devkitARM/bin/../lib/gcc/arm-none-eabi/12.2.0/crtend.o
 .bss           0x00000000        0x0 /opt/devkitpro/devkitARM/bin/../lib/gcc/arm-none-eabi/12.2.0/crtend.o
 .rodata.all_implied_fbits
                0x00000000       0x24 /opt/devkitpro/devkitARM/bin/../lib/gcc/arm-none-eabi/12.2.0/crtend.o
 .text          0x00000000        0x0 /opt/devkitpro/devkitARM/bin/../lib/gcc/arm-none-eabi/12.2.0/crtn.o
 .data          0x00000000        0x0 /opt/devkitpro/devkitARM/bin/../lib/gcc/arm-none-eabi/12.2.0/crtn.o
 .bss           0x00000000        0x0 /opt/devkitpro/devkitARM/bin/../lib/gcc/arm-none-eabi/12.2.0/crtn.o

Memory Configuration

Name             Origin             Length             Attributes
ewram            0x02000000         0x00380000
dtcm             0x02ff0000         0x00004000
vectors          0x01000000         0x00000100
itcm             0x01000100         0x00007f00
*default*        0x00000000         0xffffffff

Linker script and memory map

                0x02380000                        __ewram_end = (ORIGIN (ewram) + LENGTH (ewram))
                0x02380000                        __eheap_end = (ORIGIN (ewram) + LENGTH (ewram))
                0x02ff4000                        __dtcm_top = (ORIGIN (dtcm) + LENGTH (dtcm))
                0x02ff3ff8                        __irq_flags = (__dtcm_top - 0x8)
                0x02ff3ffc                        __irq_vector = (__dtcm_top - 0x4)
                0x02ff3f00                        __sp_svc = (__dtcm_top - 0x100)
                0x02ff3e00                        __sp_irq = (__sp_svc - 0x100)
                0x02ff3d00                        __sp_usr = (__sp_irq - 0x100)

.secure         0x02000000      0x800
 *(.secure)
 .secure        0x02000000      0x800 /opt/devkitpro/libnds/lib/libnds9.a(securearea.o)
                0x02000000                __secure_area__

.crt0           0x02000800      0x300
                0x02000800                        __text_start = .
 *(.crt0)
 .crt0          0x02000800      0x300 /opt/devkitpro/devkitARM/bin/../lib/gcc/arm-none-eabi/12.2.0/../../../../arm-none-eabi/lib/ds_arm9_crt0.o
                0x02000800                _start
                0x02000b00                        . = ALIGN (0x4)

.plt
 *(.plt)

.init           0x02000b00       0x18
 *(SORT_NONE(.init))
 .init          0x02000b00        0xc /opt/devkitpro/devkitARM/bin/../lib/gcc/arm-none-eabi/12.2.0/crti.o
                0x02000b00                _init
 .init          0x02000b0c        0xc /opt/devkitpro/devkitARM/bin/../lib/gcc/arm-none-eabi/12.2.0/crtn.o

.text           0x02000b40    0x21db0
 *(EXCLUDE_FILE(*.twl* *.vectors* *.itcm*) .text)
 .text          0x02000b40      0x648 /opt/devkitpro/nflib/lib/libnflib.a(nf_2d.o)
                0x02000b40                NF_Set2D
                0x02000ba4                NF_ShowBg
                0x02000c18                NF_HideBg
                0x02000cb4                NF_ScrollBg
                0x02000f9c                NF_SpriteFrame
                0x02001054                NF_EnableSpriteRotScale
                0x020010c0                NF_DisableSpriteRotScale
                0x0200111c                NF_SpriteRotScale
 .text          0x02001188      0x588 /opt/devkitpro/nflib/lib/libnflib.a(nf_basic.o)
                0x02001188                NF_Error
                0x02001434                NF_SetRootFolder
                0x02001610                NF_DmaMemCopy
                0x02001694                NF_FileLoad
 .text          0x02001710     0x1540 /opt/devkitpro/nflib/lib/libnflib.a(nf_tiledbg.o)
                0x02001710                NF_InitTiledBgBuffers
                0x020017a4                NF_ResetTiledBgBuffers
                0x02001800                NF_InitTiledBgSys
                0x02001918                NF_LoadTiledBg
                0x02001ac4                NF_LoadTilesForBg
                0x02001c98                NF_UnloadTiledBg
                0x02001d34                NF_DeleteTiledBg
                0x02001ecc                NF_CreateTiledBg
                0x02002464                NF_GetTileMapAddress
                0x020024ec                NF_GetTileOfMap
                0x02002528                NF_SetTileOfMap
                0x02002568                NF_UpdateVramMap
                0x02002660                NF_BgSetPalColor
                0x020026f4                NF_BgEditPalColor
                0x02002760                NF_BgUpdatePalette
                0x02002804                NF_BgGetPalColor
                0x02002874                NF_GetTilePal
                0x020028a8                NF_SetTilePal
                0x020028e8                NF_LoadExBgPal
                0x02002948                NF_UnloadExBgPal
                0x0200298c                NF_VramExBgPal
                0x02002a18                NF_SetExBgPal
                0x02002ad8                NF_SetTileHflip
                0x02002b10                NF_SetTileVflip
                0x02002b48                NF_RotateTileGfx
 *fill*         0x02002c50       0x30 ff
 .text          0x02002c80     0x4000 /opt/devkitpro/libnds/lib/libnds9.a(dldi_stub.o)
                0x02002c80                _io_dldi_stub
 .text          0x02006c80      0x114 /opt/devkitpro/devkitARM/bin/../lib/gcc/arm-none-eabi/12.2.0/libgcc.a(_udivsi3.o)
                0x02006c80                __udivsi3
                0x02006c80                __aeabi_uidiv
                0x02006d74                __aeabi_uidivmod
 .text          0x02006d94      0x148 /opt/devkitpro/devkitARM/bin/../lib/gcc/arm-none-eabi/12.2.0/libgcc.a(_divsi3.o)
                0x02006d94                __aeabi_idiv
                0x02006d94                __divsi3
                0x02006ebc                __aeabi_idivmod
 .text          0x02006edc        0x4 /opt/devkitpro/devkitARM/bin/../lib/gcc/arm-none-eabi/12.2.0/libgcc.a(_dvmd_tls.o)
                0x02006edc                __aeabi_ldiv0
                0x02006edc                __aeabi_idiv0
 .text          0x02006ee0       0xd4 /opt/devkitpro/devkitARM/bin/../lib/gcc/arm-none-eabi/12.2.0/libgcc.a(_aeabi_ldivmod.o)
                0x02006ee0                __aeabi_ldivmod
 .text          0x02006fb4       0x28 /opt/devkitpro/devkitARM/bin/../lib/gcc/arm-none-eabi/12.2.0/libgcc.a(_clzdi2.o)
                0x02006fb4                __clzdi2
 .text          0x02006fdc       0x48 /opt/devkitpro/devkitARM/bin/../lib/gcc/arm-none-eabi/12.2.0/libgcc.a(_clzsi2.o)
                0x02006fdc                __clzsi2
 .text          0x02007024      0x224 /opt/devkitpro/devkitARM/bin/../lib/gcc/arm-none-eabi/12.2.0/../../../../arm-none-eabi/lib/libg.a(libc_a-strcmp.o)
                0x02007024                strcmp
 .text          0x02007248      0x424 /opt/devkitpro/devkitARM/bin/../lib/gcc/arm-none-eabi/12.2.0/libgcc.a(_arm_addsubdf3.o)
                0x02007248                __aeabi_drsub
                0x02007250                __subdf3
                0x02007250                __aeabi_dsub
                0x02007254                __aeabi_dadd
                0x02007254                __adddf3
                0x02007564                __aeabi_ui2d
                0x02007564                __floatunsidf
                0x02007588                __floatsidf
                0x02007588                __aeabi_i2d
                0x020075b0                __extendsfdf2
                0x020075b0                __aeabi_f2d
                0x020075f8                __aeabi_ul2d
                0x020075f8                __floatundidf
                0x0200760c                __aeabi_l2d
                0x0200760c                __floatdidf
 .text          0x0200766c      0x49c /opt/devkitpro/devkitARM/bin/../lib/gcc/arm-none-eabi/12.2.0/libgcc.a(_arm_muldivdf3.o)
                0x0200766c                __aeabi_dmul
                0x0200766c                __muldf3
                0x020078fc                __aeabi_ddiv
                0x020078fc                __divdf3
 .text          0x02007b08      0x144 /opt/devkitpro/devkitARM/bin/../lib/gcc/arm-none-eabi/12.2.0/libgcc.a(_arm_cmpdf2.o)
                0x02007b08                __gedf2
                0x02007b08                __gtdf2
                0x02007b10                __ledf2
                0x02007b10                __ltdf2
                0x02007b18                __cmpdf2
                0x02007b18                __eqdf2
                0x02007b18                __nedf2
                0x02007ba0                __aeabi_cdrcmple
                0x02007bbc                __aeabi_cdcmple
                0x02007bbc                __aeabi_cdcmpeq
                0x02007bd4                __aeabi_dcmpeq
                0x02007bec                __aeabi_dcmplt
                0x02007c04                __aeabi_dcmple
                0x02007c1c                __aeabi_dcmpge
                0x02007c34                __aeabi_dcmpgt
 .text          0x02007c4c       0x38 /opt/devkitpro/devkitARM/bin/../lib/gcc/arm-none-eabi/12.2.0/libgcc.a(_arm_unorddf2.o)
                0x02007c4c                __aeabi_dcmpun
                0x02007c4c                __unorddf2
 .text          0x02007c84       0x5c /opt/devkitpro/devkitARM/bin/../lib/gcc/arm-none-eabi/12.2.0/libgcc.a(_arm_fixdfsi.o)
                0x02007c84                __fixdfsi
                0x02007c84                __aeabi_d2iz
 .text          0x02007ce0       0x3c /opt/devkitpro/devkitARM/bin/../lib/gcc/arm-none-eabi/12.2.0/libgcc.a(_aeabi_uldivmod.o)
                0x02007ce0                __aeabi_uldivmod
 *(EXCLUDE_FILE(*.twl* *.vectors* *.itcm*) .stub)
 *(EXCLUDE_FILE(*.twl* *.vectors* *.itcm*) .text.*)
 .text.__do_global_dtors_aux
                0x02007d1c       0x40 /opt/devkitpro/devkitARM/bin/../lib/gcc/arm-none-eabi/12.2.0/crtbegin.o
 .text.frame_dummy
                0x02007d5c       0x30 /opt/devkitpro/devkitARM/bin/../lib/gcc/arm-none-eabi/12.2.0/crtbegin.o
 .text.startup  0x02007d8c       0x88 main.o
                0x02007d8c                main
 .text.nitroFSDirClose
                0x02007e14        0x4 /opt/devkitpro/libnds/lib/libfilesystem.a(nitrofs.o)
 .text.nitroFSSeek
                0x02007e18       0x78 /opt/devkitpro/libnds/lib/libfilesystem.a(nitrofs.o)
 .text.nitroFSFstat
                0x02007e90       0x10 /opt/devkitpro/libnds/lib/libfilesystem.a(nitrofs.o)
 .text.nitroSubReadBlock
                0x02007ea0       0x54 /opt/devkitpro/libnds/lib/libfilesystem.a(nitrofs.o)
 .text.nitroSubReadCard
                0x02007ef4       0xb0 /opt/devkitpro/libnds/lib/libfilesystem.a(nitrofs.o)
 .text.nitroFSClose
                0x02007fa4        0x4 /opt/devkitpro/libnds/lib/libfilesystem.a(nitrofs.o)
 .text.nitroDirReset
                0x02007fa8       0x9c /opt/devkitpro/libnds/lib/libfilesystem.a(nitrofs.o)
 .text.nitroFSRead
                0x02008044       0xbc /opt/devkitpro/libnds/lib/libfilesystem.a(nitrofs.o)
 .text.nitroFSDirNext
                0x02008100      0x30c /opt/devkitpro/libnds/lib/libfilesystem.a(nitrofs.o)
 .text.nitroFSDirOpen
                0x0200840c       0xe0 /opt/devkitpro/libnds/lib/libfilesystem.a(nitrofs.o)
 .text.nitroFSChdir
                0x020084ec       0x30 /opt/devkitpro/libnds/lib/libfilesystem.a(nitrofs.o)
 .text.nitroFSOpen
                0x0200851c       0xc4 /opt/devkitpro/libnds/lib/libfilesystem.a(nitrofs.o)
 .text.nitroFSstat
                0x020085e0       0x68 /opt/devkitpro/libnds/lib/libfilesystem.a(nitrofs.o)
 .text.nitroFSInit
                0x02008648      0x12c /opt/devkitpro/libnds/lib/libfilesystem.a(nitrofs.o)
                0x02008648                nitroFSInit
 .text.fatMount.part.0
                0x02008774       0xa0 /opt/devkitpro/libnds/lib/libfat.a(libfat.o)
 .text.fatMount
                0x02008814       0x3c /opt/devkitpro/libnds/lib/libfat.a(libfat.o)
                0x02008814                fatMount
 .text.fatInit  0x02008850      0x130 /opt/devkitpro/libnds/lib/libfat.a(libfat.o)
                0x02008850                fatInit
 .text.fatInitDefault
                0x02008980        0xc /opt/devkitpro/libnds/lib/libfat.a(libfat.o)
                0x02008980                fatInitDefault
 .text._FAT_check_position_for_next_cluster.part.0
                0x0200898c       0x68 /opt/devkitpro/libnds/lib/libfat.a(fatfile.o)
 .text._FAT_syncToDisc.part.0
                0x020089f4       0xd4 /opt/devkitpro/libnds/lib/libfat.a(fatfile.o)
 .text._FAT_file_extend_r
                0x02008ac8      0x208 /opt/devkitpro/libnds/lib/libfat.a(fatfile.o)
 .text._FAT_open_r
                0x02008cd0      0x2d4 /opt/devkitpro/libnds/lib/libfat.a(fatfile.o)
                0x02008cd0                _FAT_open_r
 .text._FAT_close_r
                0x02008fa4       0x74 /opt/devkitpro/libnds/lib/libfat.a(fatfile.o)
                0x02008fa4                _FAT_close_r
 .text._FAT_read_r
                0x02009018      0x398 /opt/devkitpro/libnds/lib/libfat.a(fatfile.o)
                0x02009018                _FAT_read_r
 .text._FAT_write_r
                0x020093b0      0x53c /opt/devkitpro/libnds/lib/libfat.a(fatfile.o)
                0x020093b0                _FAT_write_r
 .text._FAT_seek_r
                0x020098ec      0x194 /opt/devkitpro/libnds/lib/libfat.a(fatfile.o)
                0x020098ec                _FAT_seek_r
 .text._FAT_fstat_r
                0x02009a80       0x8c /opt/devkitpro/libnds/lib/libfat.a(fatfile.o)
                0x02009a80                _FAT_fstat_r
 .text._FAT_ftruncate_r
                0x02009b0c      0x16c /opt/devkitpro/libnds/lib/libfat.a(fatfile.o)
                0x02009b0c                _FAT_ftruncate_r
 .text._FAT_fsync_r
                0x02009c78       0x44 /opt/devkitpro/libnds/lib/libfat.a(fatfile.o)
                0x02009c78                _FAT_fsync_r
 .text._FAT_cache_getPage
                0x02009cbc       0xf0 /opt/devkitpro/libnds/lib/libfat.a(cache.o)
 .text._FAT_cache_constructor
                0x02009dac       0x90 /opt/devkitpro/libnds/lib/libfat.a(cache.o)
                0x02009dac                _FAT_cache_constructor
 .text._FAT_cache_readSectors
                0x02009e3c       0x60 /opt/devkitpro/libnds/lib/libfat.a(cache.o)
                0x02009e3c                _FAT_cache_readSectors
 .text._FAT_cache_readPartialSector
                0x02009e9c       0x3c /opt/devkitpro/libnds/lib/libfat.a(cache.o)
                0x02009e9c                _FAT_cache_readPartialSector
 .text._FAT_cache_readLittleEndianValue
                0x02009ed8       0x70 /opt/devkitpro/libnds/lib/libfat.a(cache.o)
                0x02009ed8                _FAT_cache_readLittleEndianValue
 .text._FAT_cache_writePartialSector
                0x02009f48       0x4c /opt/devkitpro/libnds/lib/libfat.a(cache.o)
                0x02009f48                _FAT_cache_writePartialSector
 .text._FAT_cache_writeLittleEndianValue
                0x02009f94       0x8c /opt/devkitpro/libnds/lib/libfat.a(cache.o)
                0x02009f94                _FAT_cache_writeLittleEndianValue
 .text._FAT_cache_eraseWritePartialSector
                0x0200a020       0x60 /opt/devkitpro/libnds/lib/libfat.a(cache.o)
                0x0200a020                _FAT_cache_eraseWritePartialSector
 .text._FAT_cache_writeSectors
                0x0200a080       0x80 /opt/devkitpro/libnds/lib/libfat.a(cache.o)
                0x0200a080                _FAT_cache_writeSectors
 .text._FAT_cache_flush
                0x0200a100       0x40 /opt/devkitpro/libnds/lib/libfat.a(cache.o)
                0x0200a100                _FAT_cache_flush
 .text._FAT_stat_r
                0x0200a140       0x90 /opt/devkitpro/libnds/lib/libfat.a(fatdir.o)
                0x0200a140                _FAT_stat_r
 .text._FAT_link_r
                0x0200a1d0        0xc /opt/devkitpro/libnds/lib/libfat.a(fatdir.o)
                0x0200a1d0                _FAT_link_r
 .text._FAT_unlink_r
                0x0200a1dc      0x184 /opt/devkitpro/libnds/lib/libfat.a(fatdir.o)
                0x0200a1dc                _FAT_unlink_r
 .text._FAT_chdir_r
                0x0200a360       0x70 /opt/devkitpro/libnds/lib/libfat.a(fatdir.o)
                0x0200a360                _FAT_chdir_r
 .text._FAT_rename_r
                0x0200a3d0      0x1c4 /opt/devkitpro/libnds/lib/libfat.a(fatdir.o)
                0x0200a3d0                _FAT_rename_r
 .text._FAT_mkdir_r
                0x0200a594      0x244 /opt/devkitpro/libnds/lib/libfat.a(fatdir.o)
                0x0200a594                _FAT_mkdir_r
 .text._FAT_statvfs_r
                0x0200a7d8       0x78 /opt/devkitpro/libnds/lib/libfat.a(fatdir.o)
                0x0200a7d8                _FAT_statvfs_r
 .text._FAT_diropen_r
                0x0200a850       0xb0 /opt/devkitpro/libnds/lib/libfat.a(fatdir.o)
                0x0200a850                _FAT_diropen_r
 .text._FAT_dirreset_r
                0x0200a900       0x4c /opt/devkitpro/libnds/lib/libfat.a(fatdir.o)
                0x0200a900                _FAT_dirreset_r
 .text._FAT_dirnext_r
                0x0200a94c       0x7c /opt/devkitpro/libnds/lib/libfat.a(fatdir.o)
                0x0200a94c                _FAT_dirnext_r
 .text._FAT_dirclose_r
                0x0200a9c8       0x20 /opt/devkitpro/libnds/lib/libfat.a(fatdir.o)
                0x0200a9c8                _FAT_dirclose_r
 .text._FAT_directory_entryGetAlias
                0x0200a9e8       0xc8 /opt/devkitpro/libnds/lib/libfat.a(directory.o)
 .text._FAT_directory_incrementDirEntryPosition
                0x0200aab0       0x80 /opt/devkitpro/libnds/lib/libfat.a(directory.o)
 .text._FAT_directory_mbsncasecmp
                0x0200ab30       0xa8 /opt/devkitpro/libnds/lib/libfat.a(directory.o)
 .text._FAT_directory_ucs2tombs.constprop.0
                0x0200abd8       0x90 /opt/devkitpro/libnds/lib/libfat.a(directory.o)
 .text._FAT_directory_entryGetCluster
                0x0200ac68       0x20 /opt/devkitpro/libnds/lib/libfat.a(directory.o)
                0x0200ac68                _FAT_directory_entryGetCluster
 .text._FAT_directory_getNextEntry
                0x0200ac88      0x23c /opt/devkitpro/libnds/lib/libfat.a(directory.o)
                0x0200ac88                _FAT_directory_getNextEntry
 .text._FAT_directory_entryExists
                0x0200aec4       0x80 /opt/devkitpro/libnds/lib/libfat.a(directory.o)
 .text._FAT_directory_getFirstEntry
                0x0200af44       0x20 /opt/devkitpro/libnds/lib/libfat.a(directory.o)
                0x0200af44                _FAT_directory_getFirstEntry
 .text._FAT_directory_getRootEntry
                0x0200af64       0x60 /opt/devkitpro/libnds/lib/libfat.a(directory.o)
                0x0200af64                _FAT_directory_getRootEntry
 .text._FAT_directory_entryFromPosition
                0x0200afc4      0x150 /opt/devkitpro/libnds/lib/libfat.a(directory.o)
                0x0200afc4                _FAT_directory_entryFromPosition
 .text._FAT_directory_entryFromPath
                0x0200b114      0x248 /opt/devkitpro/libnds/lib/libfat.a(directory.o)
                0x0200b114                _FAT_directory_entryFromPath
 .text._FAT_directory_removeEntry
                0x0200b35c       0xd8 /opt/devkitpro/libnds/lib/libfat.a(directory.o)
                0x0200b35c                _FAT_directory_removeEntry
 .text._FAT_directory_addEntry
                0x0200b434      0x808 /opt/devkitpro/libnds/lib/libfat.a(directory.o)
                0x0200b434                _FAT_directory_addEntry
 .text._FAT_directory_chdir
                0x0200bc3c       0x3c /opt/devkitpro/libnds/lib/libfat.a(directory.o)
                0x0200bc3c                _FAT_directory_chdir
 .text._FAT_directory_entryStat
                0x0200bc78       0xe4 /opt/devkitpro/libnds/lib/libfat.a(directory.o)
                0x0200bc78                _FAT_directory_entryStat
 .text.isValidMBR
                0x0200bd5c       0x5c /opt/devkitpro/libnds/lib/libfat.a(partition.o)
 .text._FAT_updateFS_INFO
                0x0200bdb8       0x54 /opt/devkitpro/libnds/lib/libfat.a(partition.o)
 .text.FindFirstValidPartition_buf.part.0
                0x0200be0c      0x11c /opt/devkitpro/libnds/lib/libfat.a(partition.o)
 .text._FAT_partition_getPartitionFromPath
                0x0200bf28       0x10 /opt/devkitpro/libnds/lib/libfat.a(partition.o)
                0x0200bf28                _FAT_partition_getPartitionFromPath
 .text._FAT_partition_createFSinfo
                0x0200bf38       0x50 /opt/devkitpro/libnds/lib/libfat.a(partition.o)
                0x0200bf38                _FAT_partition_createFSinfo
 .text._FAT_partition_readFSinfo.part.0
                0x0200bf88       0x74 /opt/devkitpro/libnds/lib/libfat.a(partition.o)
 .text._FAT_partition_constructor_buf
                0x0200bffc      0x2e8 /opt/devkitpro/libnds/lib/libfat.a(partition.o)
                0x0200bffc                _FAT_partition_constructor_buf
 .text._FAT_partition_constructor
                0x0200c2e4       0x40 /opt/devkitpro/libnds/lib/libfat.a(partition.o)
                0x0200c2e4                _FAT_partition_constructor
 .text._FAT_partition_readFSinfo
                0x0200c324       0x10 /opt/devkitpro/libnds/lib/libfat.a(partition.o)
                0x0200c324                _FAT_partition_readFSinfo
 .text._FAT_lock_init
                0x0200c334        0x4 /opt/devkitpro/libnds/lib/libfat.a(lock.o)
                0x0200c334                _FAT_lock_init
 .text._FAT_lock
                0x0200c338        0x4 /opt/devkitpro/libnds/lib/libfat.a(lock.o)
                0x0200c338                _FAT_lock
 .text._FAT_unlock
                0x0200c33c        0x4 /opt/devkitpro/libnds/lib/libfat.a(lock.o)
                0x0200c33c                _FAT_unlock
 .text._FAT_filetime_getTimeFromRTC
                0x0200c340       0x44 /opt/devkitpro/libnds/lib/libfat.a(filetime.o)
                0x0200c340                _FAT_filetime_getTimeFromRTC
 .text._FAT_filetime_getDateFromRTC
                0x0200c384       0x44 /opt/devkitpro/libnds/lib/libfat.a(filetime.o)
                0x0200c384                _FAT_filetime_getDateFromRTC
 .text._FAT_filetime_to_time_t
                0x0200c3c8       0x38 /opt/devkitpro/libnds/lib/libfat.a(filetime.o)
                0x0200c3c8                _FAT_filetime_to_time_t
 .text._FAT_fat_writeFatEntry.part.0.isra.0
                0x0200c400      0x12c /opt/devkitpro/libnds/lib/libfat.a(file_allocation_table.o)
 .text._FAT_fat_nextCluster
                0x0200c52c      0x108 /opt/devkitpro/libnds/lib/libfat.a(file_allocation_table.o)
                0x0200c52c                _FAT_fat_nextCluster
 .text._FAT_fat_linkFreeCluster
                0x0200c634       0xac /opt/devkitpro/libnds/lib/libfat.a(file_allocation_table.o)
                0x0200c634                _FAT_fat_linkFreeCluster
 .text._FAT_fat_linkFreeClusterCleared
                0x0200c6e0       0x68 /opt/devkitpro/libnds/lib/libfat.a(file_allocation_table.o)
                0x0200c6e0                _FAT_fat_linkFreeClusterCleared
 .text._FAT_fat_clearLinks
                0x0200c748       0x7c /opt/devkitpro/libnds/lib/libfat.a(file_allocation_table.o)
                0x0200c748                _FAT_fat_clearLinks
 .text._FAT_fat_trimChain
                0x0200c7c4       0x80 /opt/devkitpro/libnds/lib/libfat.a(file_allocation_table.o)
                0x0200c7c4                _FAT_fat_trimChain
 .text._FAT_fat_lastCluster
                0x0200c844       0x34 /opt/devkitpro/libnds/lib/libfat.a(file_allocation_table.o)
                0x0200c844                _FAT_fat_lastCluster
 .text._FAT_fat_freeClusterCount
                0x0200c878       0x2c /opt/devkitpro/libnds/lib/libfat.a(file_allocation_table.o)
                0x0200c878                _FAT_fat_freeClusterCount
 .text.setBrightness
                0x0200c8a4       0x40 /opt/devkitpro/libnds/lib/libnds9.a(video.o)
                0x0200c8a4                setBrightness
 .text.vramDefault
                0x0200c8e4       0xd0 /opt/devkitpro/libnds/lib/libnds9.a(video.o)
                0x0200c8e4                vramDefault
 .text.newRow   0x0200c9b4       0xa8 /opt/devkitpro/libnds/lib/libnds9.a(console.o)
 .text.consolePrintChar
                0x0200ca5c       0xe0 /opt/devkitpro/libnds/lib/libnds9.a(console.o)
                0x0200ca5c                consolePrintChar
 .text.con_write
                0x0200cb3c      0x36c /opt/devkitpro/libnds/lib/libnds9.a(console.o)
                0x0200cb3c                con_write
 .text.consoleLoadFont
                0x0200cea8      0x2a0 /opt/devkitpro/libnds/lib/libnds9.a(console.o)
                0x0200cea8                consoleLoadFont
 .text.consoleInit
                0x0200d148      0x18c /opt/devkitpro/libnds/lib/libnds9.a(console.o)
                0x0200d148                consoleInit
 .text.consoleDemoInit
                0x0200d2d4       0x40 /opt/devkitpro/libnds/lib/libnds9.a(console.o)
                0x0200d2d4                consoleDemoInit
 .text.oamRotateScale
                0x0200d314       0x4c /opt/devkitpro/libnds/lib/libnds9.a(sprite.o)
                0x0200d314                oamRotateScale
 .text.scanKeys
                0x0200d360       0x8c /opt/devkitpro/libnds/lib/libnds9.a(keys.o)
                0x0200d360                scanKeys
 .text.keysDown
                0x0200d3ec       0x14 /opt/devkitpro/libnds/lib/libnds9.a(keys.o)
                0x0200d3ec                keysDown
 .text.dldiGetInternal
                0x0200d400       0x34 /opt/devkitpro/libnds/lib/libnds9.a(dldi.o)
                0x0200d400                dldiGetInternal
 .text.get_io_dsisd
                0x0200d434       0x24 /opt/devkitpro/libnds/lib/libnds9.a(dldi.o)
                0x0200d434                get_io_dsisd
 .text.__syscall_gettod_r
                0x0200d458       0x28 /opt/devkitpro/libnds/lib/libnds9.a(initSystem.o)
                0x0200d458                __syscall_gettod_r
 .text.__syscall_exit
                0x0200d480        0x8 /opt/devkitpro/libnds/lib/libnds9.a(initSystem.o)
                0x0200d480                __syscall_exit
 .text.initSystem
                0x0200d488      0x180 /opt/devkitpro/libnds/lib/libnds9.a(initSystem.o)
                0x0200d488                initSystem
 .text.irqDummy
                0x0200d608        0x4 /opt/devkitpro/libnds/lib/libnds9.a(interrupts.o)
                0x0200d608                irqDummy
 .text.irqSet   0x0200d60c       0x6c /opt/devkitpro/libnds/lib/libnds9.a(interrupts.o)
                0x0200d60c                irqSet
 .text.irqInit  0x0200d678       0x50 /opt/devkitpro/libnds/lib/libnds9.a(interrupts.o)
                0x0200d678                irqInit
 .text.irqEnable
                0x0200d6c8       0x64 /opt/devkitpro/libnds/lib/libnds9.a(interrupts.o)
                0x0200d6c8                irqEnable
 .text.systemErrorExit
                0x0200d72c        0x4 /opt/devkitpro/libnds/lib/libnds9.a(libnds_exit.arm.o)
                0x0200d72c                systemErrorExit
 .text.__libnds_exit
                0x0200d730       0x5c /opt/devkitpro/libnds/lib/libnds9.a(libnds_exit.arm.o)
                0x0200d730                __libnds_exit
 .text.cardPolledTransfer
                0x0200d78c       0x54 /opt/devkitpro/libnds/lib/libnds9.a(card.o)
                0x0200d78c                cardPolledTransfer
 .text.cardParamCommand
                0x0200d7e0       0x34 /opt/devkitpro/libnds/lib/libnds9.a(card.o)
                0x0200d7e0                cardParamCommand
 .text.fifo_queueBlock
                0x0200d814       0x44 /opt/devkitpro/libnds/lib/libnds9.a(fifosystem.o)
 .text.fifo_waitBlock
                0x0200d858       0x80 /opt/devkitpro/libnds/lib/libnds9.a(fifosystem.o)
 .text.fifoInternalSend.part.0
                0x0200d8d8       0xd4 /opt/devkitpro/libnds/lib/libnds9.a(fifosystem.o)
 .text.fifoInternalSendInterrupt
                0x0200d9ac       0xb0 /opt/devkitpro/libnds/lib/libnds9.a(fifosystem.o)
 .text.fifoSetValue32Handler
                0x0200da5c       0xd4 /opt/devkitpro/libnds/lib/libnds9.a(fifosystem.o)
                0x0200da5c                fifoSetValue32Handler
 .text.fifoSendValue32
                0x0200db30       0x4c /opt/devkitpro/libnds/lib/libnds9.a(fifosystem.o)
                0x0200db30                fifoSendValue32
 .text.fifoSendDatamsg
                0x0200db7c       0x90 /opt/devkitpro/libnds/lib/libnds9.a(fifosystem.o)
                0x0200db7c                fifoSendDatamsg
 .text.fifoGetValue32
                0x0200dc0c       0x70 /opt/devkitpro/libnds/lib/libnds9.a(fifosystem.o)
                0x0200dc0c                fifoGetValue32
 .text.fifoGetDatamsg
                0x0200dc7c       0xf4 /opt/devkitpro/libnds/lib/libnds9.a(fifosystem.o)
                0x0200dc7c                fifoGetDatamsg
 .text.fifoInternalRecvInterrupt
                0x0200dd70      0x37c /opt/devkitpro/libnds/lib/libnds9.a(fifosystem.o)
 .text.fifoSetDatamsgHandler
                0x0200e0ec       0x9c /opt/devkitpro/libnds/lib/libnds9.a(fifosystem.o)
                0x0200e0ec                fifoSetDatamsgHandler
 .text.fifoCheckValue32
                0x0200e188       0x24 /opt/devkitpro/libnds/lib/libnds9.a(fifosystem.o)
                0x0200e188                fifoCheckValue32
 .text.fifoInit
                0x0200e1ac      0x108 /opt/devkitpro/libnds/lib/libnds9.a(fifosystem.o)
                0x0200e1ac                fifoInit
 .text.DC_FlushRange
                0x0200e2b4       0x24 /opt/devkitpro/libnds/lib/libnds9.a(dcache.o)
                0x0200e2b4                DC_FlushRange
 .text.DC_InvalidateRange
                0x0200e2d8       0x2c /opt/devkitpro/libnds/lib/libnds9.a(dcache.o)
                0x0200e2d8                DC_InvalidateRange
 .text.__libnds_mpu_setup
                0x0200e304      0x174 /opt/devkitpro/libnds/lib/libnds9.a(mpu_setup.o)
                0x0200e304                __libnds_mpu_setup
 .text.memUncached
                0x0200e478       0x20 /opt/devkitpro/libnds/lib/libnds9.a(mpu_setup.o)
                0x0200e478                memUncached
 .text.swiWaitForVBlank
                0x0200e498        0x8 /opt/devkitpro/libnds/lib/libnds9.a(IntrWait.o)
                0x0200e498                swiWaitForVBlank
 .text.swiIntrWait
                0x0200e4a0       0x70 /opt/devkitpro/libnds/lib/libnds9.a(IntrWait.o)
                0x0200e4a0                swiIntrWait
 .text.setCpuClock
                0x0200e510       0x50 /opt/devkitpro/libnds/lib/libnds9.a(cpu_clock.o)
                0x0200e510                setCpuClock
 .text.swiDelay
                0x0200e560        0x4 /opt/devkitpro/libnds/lib/libnds9.a(biosCalls.o)
                0x0200e560                swiDelay
 .text.swiSoftReset
                0x0200e564       0x2c /opt/devkitpro/libnds/lib/libnds9.a(swiSoftReset.o)
                0x0200e564                swiSoftReset
 .text.checkIfText
                0x0200e590       0x5c /opt/devkitpro/libnds/lib/libnds9.a(background.o)
                0x0200e590                checkIfText
 .text.bgUpdate
                0x0200e5ec       0xf4 /opt/devkitpro/libnds/lib/libnds9.a(background.o)
                0x0200e5ec                bgUpdate
 .text.bgInit_call
                0x0200e6e0       0xc4 /opt/devkitpro/libnds/lib/libnds9.a(background.o)
                0x0200e6e0                bgInit_call
 .text.bgInitSub_call
                0x0200e7a4       0xcc /opt/devkitpro/libnds/lib/libnds9.a(background.o)
                0x0200e7a4                bgInitSub_call
 .text.sinLutLookup
                0x0200e870       0x4c /opt/devkitpro/libnds/lib/libnds9.a(trig.o)
                0x0200e870                sinLutLookup
 .text.sinLerp  0x0200e8bc       0x40 /opt/devkitpro/libnds/lib/libnds9.a(trig.o)
                0x0200e8bc                sinLerp
 .text.cosLerp  0x0200e8fc       0x4c /opt/devkitpro/libnds/lib/libnds9.a(trig.o)
                0x0200e8fc                cosLerp
 .text.systemValueHandler
                0x0200e948       0x48 /opt/devkitpro/libnds/lib/libnds9.a(system.o)
                0x0200e948                systemValueHandler
 .text.systemMsgHandler
                0x0200e990       0x60 /opt/devkitpro/libnds/lib/libnds9.a(system.o)
                0x0200e990                systemMsgHandler
 .text.powerOn  0x0200e9f0       0x2c /opt/devkitpro/libnds/lib/libnds9.a(system.o)
                0x0200e9f0                powerOn
 .text.__muldi3
                0x0200ea1c       0x18 /opt/devkitpro/devkitARM/bin/../lib/gcc/arm-none-eabi/12.2.0/libgcc.a(_muldi3.o)
                0x0200ea1c                __aeabi_lmul
                0x0200ea1c                __muldi3
 .text.__udivmoddi4
                0x0200ea34      0x128 /opt/devkitpro/devkitARM/bin/../lib/gcc/arm-none-eabi/12.2.0/libgcc.a(_udivmoddi4.o)
                0x0200ea34                __udivmoddi4
 .text.calloc   0x0200eb5c       0x24 /opt/devkitpro/devkitARM/bin/../lib/gcc/arm-none-eabi/12.2.0/../../../../arm-none-eabi/lib/libg.a(libc_a-calloc.o)
                0x0200eb5c                calloc
 .text._calloc_r
                0x0200eb80       0xd0 /opt/devkitpro/devkitARM/bin/../lib/gcc/arm-none-eabi/12.2.0/../../../../arm-none-eabi/lib/libg.a(libc_a-callocr.o)
                0x0200eb80                _calloc_r
 .text.malloc   0x0200ec50       0x1c /opt/devkitpro/devkitARM/bin/../lib/gcc/arm-none-eabi/12.2.0/../../../../arm-none-eabi/lib/libg.a(libc_a-malloc.o)
                0x0200ec50                malloc
 .text.free     0x0200ec6c       0x1c /opt/devkitpro/devkitARM/bin/../lib/gcc/arm-none-eabi/12.2.0/../../../../arm-none-eabi/lib/libg.a(libc_a-malloc.o)
                0x0200ec6c                free
 .text._malloc_r
                0x0200ec88      0x7f0 /opt/devkitpro/devkitARM/bin/../lib/gcc/arm-none-eabi/12.2.0/../../../../arm-none-eabi/lib/libg.a(libc_a-mallocr.o)
                0x0200ec88                _malloc_r
 .text.__malloc_lock
                0x0200f478       0x18 /opt/devkitpro/devkitARM/bin/../lib/gcc/arm-none-eabi/12.2.0/../../../../arm-none-eabi/lib/libg.a(libc_a-mlock.o)
                0x0200f478                __malloc_lock
 .text.__malloc_unlock
                0x0200f490       0x18 /opt/devkitpro/devkitARM/bin/../lib/gcc/arm-none-eabi/12.2.0/../../../../arm-none-eabi/lib/libg.a(libc_a-mlock.o)
                0x0200f490                __malloc_unlock
 .text.realloc  0x0200f4a8       0x24 /opt/devkitpro/devkitARM/bin/../lib/gcc/arm-none-eabi/12.2.0/../../../../arm-none-eabi/lib/libg.a(libc_a-realloc.o)
                0x0200f4a8                realloc
 .text._realloc_r
                0x0200f4cc      0x4b8 /opt/devkitpro/devkitARM/bin/../lib/gcc/arm-none-eabi/12.2.0/../../../../arm-none-eabi/lib/libg.a(libc_a-reallocr.o)
                0x0200f4cc                _realloc_r
 .text._mbrtowc_r
                0x0200f984       0xc8 /opt/devkitpro/devkitARM/bin/../lib/gcc/arm-none-eabi/12.2.0/../../../../arm-none-eabi/lib/libg.a(libc_a-mbrtowc.o)
                0x0200f984                _mbrtowc_r
 .text.mbrtowc  0x0200fa4c       0xcc /opt/devkitpro/devkitARM/bin/../lib/gcc/arm-none-eabi/12.2.0/../../../../arm-none-eabi/lib/libg.a(libc_a-mbrtowc.o)
                0x0200fa4c                mbrtowc
 .text.mbsrtowcs
                0x0200fb18       0x40 /opt/devkitpro/devkitARM/bin/../lib/gcc/arm-none-eabi/12.2.0/../../../../arm-none-eabi/lib/libg.a(libc_a-mbsrtowcs.o)
                0x0200fb18                mbsrtowcs
 .text._wcrtomb_r
                0x0200fb58       0x9c /opt/devkitpro/devkitARM/bin/../lib/gcc/arm-none-eabi/12.2.0/../../../../arm-none-eabi/lib/libg.a(libc_a-wcrtomb.o)
                0x0200fb58                _wcrtomb_r
 .text.wcrtomb  0x0200fbf4       0xa4 /opt/devkitpro/devkitARM/bin/../lib/gcc/arm-none-eabi/12.2.0/../../../../arm-none-eabi/lib/libg.a(libc_a-wcrtomb.o)
                0x0200fbf4                wcrtomb
 .text.wctob    0x0200fc98       0x8c /opt/devkitpro/devkitARM/bin/../lib/gcc/arm-none-eabi/12.2.0/../../../../arm-none-eabi/lib/libg.a(libc_a-wctob.o)
                0x0200fc98                wctob
 .text.towlower
                0x0200fd24       0x14 /opt/devkitpro/devkitARM/bin/../lib/gcc/arm-none-eabi/12.2.0/../../../../arm-none-eabi/lib/libg.a(libc_a-towlower.o)
                0x0200fd24                towlower
 .text.towupper
                0x0200fd38       0x14 /opt/devkitpro/devkitARM/bin/../lib/gcc/arm-none-eabi/12.2.0/../../../../arm-none-eabi/lib/libg.a(libc_a-towupper.o)
                0x0200fd38                towupper
 .text.iprintf  0x0200fd4c       0x34 /opt/devkitpro/devkitARM/bin/../lib/gcc/arm-none-eabi/12.2.0/../../../../arm-none-eabi/lib/libg.a(libc_a-iprintf.o)
                0x0200fd4c                iprintf
 .text.siscanf  0x0200fd80       0x74 /opt/devkitpro/devkitARM/bin/../lib/gcc/arm-none-eabi/12.2.0/../../../../arm-none-eabi/lib/libg.a(libc_a-siscanf.o)
                0x0200fd80                siscanf
 .text.get_arg  0x0200fdf4       0x54 /opt/devkitpro/devkitARM/bin/../lib/gcc/arm-none-eabi/12.2.0/../../../../arm-none-eabi/lib/libg.a(libc_a-svfiscanf.o)
 .text._sungetc_r
                0x0200fe48       0xdc /opt/devkitpro/devkitARM/bin/../lib/gcc/arm-none-eabi/12.2.0/../../../../arm-none-eabi/lib/libg.a(libc_a-svfiscanf.o)
                0x0200fe48                _sungetc_r
 .text.__ssrefill_r
                0x0200ff24       0x68 /opt/devkitpro/devkitARM/bin/../lib/gcc/arm-none-eabi/12.2.0/../../../../arm-none-eabi/lib/libg.a(libc_a-svfiscanf.o)
                0x0200ff24                __ssrefill_r
 .text._sfread_r
                0x0200ff8c       0xc8 /opt/devkitpro/devkitARM/bin/../lib/gcc/arm-none-eabi/12.2.0/../../../../arm-none-eabi/lib/libg.a(libc_a-svfiscanf.o)
                0x0200ff8c                _sfread_r
 .text.__ssvfiscanf_r
                0x02010054     0x234c /opt/devkitpro/devkitARM/bin/../lib/gcc/arm-none-eabi/12.2.0/../../../../arm-none-eabi/lib/libg.a(libc_a-svfiscanf.o)
                0x02010054                __ssvfiscanf_r
 .text.get_arg  0x020123a0      0x684 /opt/devkitpro/devkitARM/bin/../lib/gcc/arm-none-eabi/12.2.0/../../../../arm-none-eabi/lib/libg.a(libc_a-vfiprintf.o)
 .text.__sprint_r
                0x02012a24       0x34 /opt/devkitpro/devkitARM/bin/../lib/gcc/arm-none-eabi/12.2.0/../../../../arm-none-eabi/lib/libg.a(libc_a-vfiprintf.o)
                0x02012a24                __sprint_r
 .text._vfiprintf_r
                0x02012a58     0x2340 /opt/devkitpro/devkitARM/bin/../lib/gcc/arm-none-eabi/12.2.0/../../../../arm-none-eabi/lib/libg.a(libc_a-vfiprintf.o)
                0x02012a58                _vfiprintf_r
 .text.__sbprintf
                0x02014d98       0xbc /opt/devkitpro/devkitARM/bin/../lib/gcc/arm-none-eabi/12.2.0/../../../../arm-none-eabi/lib/libg.a(libc_a-vfiprintf.o)
 .text._fclose_r
                0x02014e54      0x150 /opt/devkitpro/devkitARM/bin/../lib/gcc/arm-none-eabi/12.2.0/../../../../arm-none-eabi/lib/libg.a(libc_a-fclose.o)
                0x02014e54                _fclose_r
 .text.fclose   0x02014fa4       0x18 /opt/devkitpro/devkitARM/bin/../lib/gcc/arm-none-eabi/12.2.0/../../../../arm-none-eabi/lib/libg.a(libc_a-fclose.o)
                0x02014fa4                fclose
 .text.__sflush_r
                0x02014fbc      0x250 /opt/devkitpro/devkitARM/bin/../lib/gcc/arm-none-eabi/12.2.0/../../../../arm-none-eabi/lib/libg.a(libc_a-fflush.o)
                0x02014fbc                __sflush_r
 .text._fflush_r
                0x0201520c       0x9c /opt/devkitpro/devkitARM/bin/../lib/gcc/arm-none-eabi/12.2.0/../../../../arm-none-eabi/lib/libg.a(libc_a-fflush.o)
                0x0201520c                _fflush_r
 .text.stdio_exit_handler
                0x020152a8       0x28 /opt/devkitpro/devkitARM/bin/../lib/gcc/arm-none-eabi/12.2.0/../../../../arm-none-eabi/lib/libg.a(libc_a-findfp.o)
 .text.cleanup_stdio
                0x020152d0       0x54 /opt/devkitpro/devkitARM/bin/../lib/gcc/arm-none-eabi/12.2.0/../../../../arm-none-eabi/lib/libg.a(libc_a-findfp.o)
 .text.global_stdio_init.part.0
                0x02015324      0x158 /opt/devkitpro/devkitARM/bin/../lib/gcc/arm-none-eabi/12.2.0/../../../../arm-none-eabi/lib/libg.a(libc_a-findfp.o)
 .text.__sfp    0x0201547c      0x138 /opt/devkitpro/devkitARM/bin/../lib/gcc/arm-none-eabi/12.2.0/../../../../arm-none-eabi/lib/libg.a(libc_a-findfp.o)
                0x0201547c                __sfp
 .text.__sinit  0x020155b4       0x64 /opt/devkitpro/devkitARM/bin/../lib/gcc/arm-none-eabi/12.2.0/../../../../arm-none-eabi/lib/libg.a(libc_a-findfp.o)
                0x020155b4                __sinit
 .text.__sfp_lock_acquire
                0x02015618       0x18 /opt/devkitpro/devkitARM/bin/../lib/gcc/arm-none-eabi/12.2.0/../../../../arm-none-eabi/lib/libg.a(libc_a-findfp.o)
                0x02015618                __sfp_lock_acquire
 .text.__sfp_lock_release
                0x02015630       0x18 /opt/devkitpro/devkitARM/bin/../lib/gcc/arm-none-eabi/12.2.0/../../../../arm-none-eabi/lib/libg.a(libc_a-findfp.o)
                0x02015630                __sfp_lock_release
 .text._fopen_r
                0x02015648      0x138 /opt/devkitpro/devkitARM/bin/../lib/gcc/arm-none-eabi/12.2.0/../../../../arm-none-eabi/lib/libg.a(libc_a-fopen.o)
                0x02015648                _fopen_r
 .text.fopen    0x02015780       0x20 /opt/devkitpro/devkitARM/bin/../lib/gcc/arm-none-eabi/12.2.0/../../../../arm-none-eabi/lib/libg.a(libc_a-fopen.o)
                0x02015780                fopen
 .text._fread_r
                0x020157a0      0x33c /opt/devkitpro/devkitARM/bin/../lib/gcc/arm-none-eabi/12.2.0/../../../../arm-none-eabi/lib/libg.a(libc_a-fread.o)
                0x020157a0                _fread_r
 .text.fread    0x02015adc       0x3c /opt/devkitpro/devkitARM/bin/../lib/gcc/arm-none-eabi/12.2.0/../../../../arm-none-eabi/lib/libg.a(libc_a-fread.o)
                0x02015adc                fread
 .text._fseek_r
                0x02015b18       0x20 /opt/devkitpro/devkitARM/bin/../lib/gcc/arm-none-eabi/12.2.0/../../../../arm-none-eabi/lib/libg.a(libc_a-fseek.o)
                0x02015b18                _fseek_r
 .text.fseek    0x02015b38       0x38 /opt/devkitpro/devkitARM/bin/../lib/gcc/arm-none-eabi/12.2.0/../../../../arm-none-eabi/lib/libg.a(libc_a-fseek.o)
                0x02015b38                fseek
 .text.ftell    0x02015b70       0x30 /opt/devkitpro/devkitARM/bin/../lib/gcc/arm-none-eabi/12.2.0/../../../../arm-none-eabi/lib/libg.a(libc_a-ftell.o)
                0x02015b70                ftell
 .text.__sfvwrite_r
                0x02015ba0      0x4c8 /opt/devkitpro/devkitARM/bin/../lib/gcc/arm-none-eabi/12.2.0/../../../../arm-none-eabi/lib/libg.a(libc_a-fvwrite.o)
                0x02015ba0                __sfvwrite_r
 .text._fwalk_sglue
                0x02016068       0x78 /opt/devkitpro/devkitARM/bin/../lib/gcc/arm-none-eabi/12.2.0/../../../../arm-none-eabi/lib/libg.a(libc_a-fwalk.o)
                0x02016068                _fwalk_sglue
 .text.__smakebuf_r
                0x020160e0      0x13c /opt/devkitpro/devkitARM/bin/../lib/gcc/arm-none-eabi/12.2.0/../../../../arm-none-eabi/lib/libg.a(libc_a-makebuf.o)
                0x020160e0                __smakebuf_r
 .text.__swhatbuf_r
                0x0201621c       0x80 /opt/devkitpro/devkitARM/bin/../lib/gcc/arm-none-eabi/12.2.0/../../../../arm-none-eabi/lib/libg.a(libc_a-makebuf.o)
                0x0201621c                __swhatbuf_r
 .text._puts_r  0x0201629c       0xe8 /opt/devkitpro/devkitARM/bin/../lib/gcc/arm-none-eabi/12.2.0/../../../../arm-none-eabi/lib/libg.a(libc_a-puts.o)
                0x0201629c                _puts_r
 .text.puts     0x02016384       0x18 /opt/devkitpro/devkitARM/bin/../lib/gcc/arm-none-eabi/12.2.0/../../../../arm-none-eabi/lib/libg.a(libc_a-puts.o)
                0x02016384                puts
 .text.lflush   0x0201639c       0x3c /opt/devkitpro/devkitARM/bin/../lib/gcc/arm-none-eabi/12.2.0/../../../../arm-none-eabi/lib/libg.a(libc_a-refill.o)
 .text.__srefill_r
                0x020163d8      0x19c /opt/devkitpro/devkitARM/bin/../lib/gcc/arm-none-eabi/12.2.0/../../../../arm-none-eabi/lib/libg.a(libc_a-refill.o)
                0x020163d8                __srefill_r
 .text.rewind   0x02016574       0x30 /opt/devkitpro/devkitARM/bin/../lib/gcc/arm-none-eabi/12.2.0/../../../../arm-none-eabi/lib/libg.a(libc_a-rewind.o)
                0x02016574                rewind
 .text.__sccl   0x020165a4       0xe4 /opt/devkitpro/devkitARM/bin/../lib/gcc/arm-none-eabi/12.2.0/../../../../arm-none-eabi/lib/libg.a(libc_a-sccl.o)
                0x020165a4                __sccl
 .text.setvbuf  0x02016688      0x264 /opt/devkitpro/devkitARM/bin/../lib/gcc/arm-none-eabi/12.2.0/../../../../arm-none-eabi/lib/libg.a(libc_a-setvbuf.o)
                0x02016688                setvbuf
 .text.snprintf
                0x020168ec       0xcc /opt/devkitpro/devkitARM/bin/../lib/gcc/arm-none-eabi/12.2.0/../../../../arm-none-eabi/lib/libg.a(libc_a-snprintf.o)
                0x020168ec                snprintf
 .text.__sread  0x020169b8       0x4c /opt/devkitpro/devkitARM/bin/../lib/gcc/arm-none-eabi/12.2.0/../../../../arm-none-eabi/lib/libg.a(libc_a-stdio.o)
                0x020169b8                __sread
 .text.__seofread
                0x02016a04        0x8 /opt/devkitpro/devkitARM/bin/../lib/gcc/arm-none-eabi/12.2.0/../../../../arm-none-eabi/lib/libg.a(libc_a-stdio.o)
                0x02016a04                __seofread
 .text.__swrite
                0x02016a0c       0x6c /opt/devkitpro/devkitARM/bin/../lib/gcc/arm-none-eabi/12.2.0/../../../../arm-none-eabi/lib/libg.a(libc_a-stdio.o)
                0x02016a0c                __swrite
 .text.__sseek  0x02016a78       0x48 /opt/devkitpro/devkitARM/bin/../lib/gcc/arm-none-eabi/12.2.0/../../../../arm-none-eabi/lib/libg.a(libc_a-stdio.o)
                0x02016a78                __sseek
 .text.__sclose
                0x02016ac0       0x14 /opt/devkitpro/devkitARM/bin/../lib/gcc/arm-none-eabi/12.2.0/../../../../arm-none-eabi/lib/libg.a(libc_a-stdio.o)
                0x02016ac0                __sclose
 .text.__submore
                0x02016ad4       0xa8 /opt/devkitpro/devkitARM/bin/../lib/gcc/arm-none-eabi/12.2.0/../../../../arm-none-eabi/lib/libg.a(libc_a-ungetc.o)
                0x02016ad4                __submore
 .text.__swsetup_r
                0x02016b7c      0x140 /opt/devkitpro/devkitARM/bin/../lib/gcc/arm-none-eabi/12.2.0/../../../../arm-none-eabi/lib/libg.a(libc_a-wsetup.o)
                0x02016b7c                __swsetup_r
 .text._fseeko_r
                0x02016cbc      0x5b4 /opt/devkitpro/devkitARM/bin/../lib/gcc/arm-none-eabi/12.2.0/../../../../arm-none-eabi/lib/libg.a(libc_a-fseeko.o)
                0x02016cbc                _fseeko_r
 .text._ftello_r
                0x02017270      0x1c0 /opt/devkitpro/devkitARM/bin/../lib/gcc/arm-none-eabi/12.2.0/../../../../arm-none-eabi/lib/libg.a(libc_a-ftello.o)
                0x02017270                _ftello_r
 .text.memcmp   0x02017430       0xbc /opt/devkitpro/devkitARM/bin/../lib/gcc/arm-none-eabi/12.2.0/../../../../arm-none-eabi/lib/libg.a(libc_a-memcmp.o)
                0x02017430                memcmp
 .text.memmove  0x020174ec      0x154 /opt/devkitpro/devkitARM/bin/../lib/gcc/arm-none-eabi/12.2.0/../../../../arm-none-eabi/lib/libg.a(libc_a-memmove.o)
                0x020174ec                memmove
 .text.memset   0x02017640       0xfc /opt/devkitpro/devkitARM/bin/../lib/gcc/arm-none-eabi/12.2.0/../../../../arm-none-eabi/lib/libg.a(libc_a-memset.o)
                0x02017640                memset
 .text.strcasecmp
                0x0201773c       0x70 /opt/devkitpro/devkitARM/bin/../lib/gcc/arm-none-eabi/12.2.0/../../../../arm-none-eabi/lib/libg.a(libc_a-strcasecmp.o)
                0x0201773c                strcasecmp
 .text.strchr   0x020177ac      0x13c /opt/devkitpro/devkitARM/bin/../lib/gcc/arm-none-eabi/12.2.0/../../../../arm-none-eabi/lib/libg.a(libc_a-strchr.o)
                0x020177ac                strchr
 .text.strdup   0x020178e8       0x1c /opt/devkitpro/devkitARM/bin/../lib/gcc/arm-none-eabi/12.2.0/../../../../arm-none-eabi/lib/libg.a(libc_a-strdup.o)
                0x020178e8                strdup
 .text._strdup_r
                0x02017904       0x44 /opt/devkitpro/devkitARM/bin/../lib/gcc/arm-none-eabi/12.2.0/../../../../arm-none-eabi/lib/libg.a(libc_a-strdup_r.o)
                0x02017904                _strdup_r
 .text.strlen   0x02017948       0x94 /opt/devkitpro/devkitARM/bin/../lib/gcc/arm-none-eabi/12.2.0/../../../../arm-none-eabi/lib/libg.a(libc_a-strlen.o)
                0x02017948                strlen
 .text.strncasecmp
                0x020179dc       0x8c /opt/devkitpro/devkitARM/bin/../lib/gcc/arm-none-eabi/12.2.0/../../../../arm-none-eabi/lib/libg.a(libc_a-strncasecmp.o)
                0x020179dc                strncasecmp
 .text.strncmp  0x02017a68       0xec /opt/devkitpro/devkitARM/bin/../lib/gcc/arm-none-eabi/12.2.0/../../../../arm-none-eabi/lib/libg.a(libc_a-strncmp.o)
                0x02017a68                strncmp
 .text.strncpy  0x02017b54       0xd0 /opt/devkitpro/devkitARM/bin/../lib/gcc/arm-none-eabi/12.2.0/../../../../arm-none-eabi/lib/libg.a(libc_a-strncpy.o)
                0x02017b54                strncpy
 .text.strnlen  0x02017c24       0x48 /opt/devkitpro/devkitARM/bin/../lib/gcc/arm-none-eabi/12.2.0/../../../../arm-none-eabi/lib/libg.a(libc_a-strnlen.o)
                0x02017c24                strnlen
 .text.strpbrk  0x02017c6c       0x7c /opt/devkitpro/devkitARM/bin/../lib/gcc/arm-none-eabi/12.2.0/../../../../arm-none-eabi/lib/libg.a(libc_a-strpbrk.o)
                0x02017c6c                strpbrk
 .text.strrchr  0x02017ce8       0x58 /opt/devkitpro/devkitARM/bin/../lib/gcc/arm-none-eabi/12.2.0/../../../../arm-none-eabi/lib/libg.a(libc_a-strrchr.o)
                0x02017ce8                strrchr
 .text.stpcpy   0x02017d40       0x74 /opt/devkitpro/devkitARM/bin/../lib/gcc/arm-none-eabi/12.2.0/../../../../arm-none-eabi/lib/libg.a(libc_a-stpcpy.o)
                0x02017d40                stpcpy
 .text.localtime_r
                0x02017db4      0x370 /opt/devkitpro/devkitARM/bin/../lib/gcc/arm-none-eabi/12.2.0/../../../../arm-none-eabi/lib/libg.a(libc_a-lcltime_r.o)
                0x02017db4                localtime_r
 .text.validate_structure
                0x02018124      0x2e0 /opt/devkitpro/devkitARM/bin/../lib/gcc/arm-none-eabi/12.2.0/../../../../arm-none-eabi/lib/libg.a(libc_a-mktime.o)
 .text.mktime   0x02018404      0x4c0 /opt/devkitpro/devkitARM/bin/../lib/gcc/arm-none-eabi/12.2.0/../../../../arm-none-eabi/lib/libg.a(libc_a-mktime.o)
                0x02018404                mktime
 .text.time     0x020188c4       0x50 /opt/devkitpro/devkitARM/bin/../lib/gcc/arm-none-eabi/12.2.0/../../../../arm-none-eabi/lib/libg.a(libc_a-time.o)
                0x020188c4                time
 .text.__tzcalc_limits
                0x02018914      0x254 /opt/devkitpro/devkitARM/bin/../lib/gcc/arm-none-eabi/12.2.0/../../../../arm-none-eabi/lib/libg.a(libc_a-tzcalc_limits.o)
                0x02018914                __tzcalc_limits
 .text.__tz_lock
                0x02018b68       0x18 /opt/devkitpro/devkitARM/bin/../lib/gcc/arm-none-eabi/12.2.0/../../../../arm-none-eabi/lib/libg.a(libc_a-tzlock.o)
                0x02018b68                __tz_lock
 .text.__tz_unlock
                0x02018b80       0x18 /opt/devkitpro/devkitARM/bin/../lib/gcc/arm-none-eabi/12.2.0/../../../../arm-none-eabi/lib/libg.a(libc_a-tzlock.o)
                0x02018b80                __tz_unlock
 .text._tzset_unlocked
                0x02018b98       0x14 /opt/devkitpro/devkitARM/bin/../lib/gcc/arm-none-eabi/12.2.0/../../../../arm-none-eabi/lib/libg.a(libc_a-tzset.o)
                0x02018b98                _tzset_unlocked
 .text._tzset_unlocked_r
                0x02018bac      0x688 /opt/devkitpro/devkitARM/bin/../lib/gcc/arm-none-eabi/12.2.0/../../../../arm-none-eabi/lib/libg.a(libc_a-tzset_r.o)
                0x02018bac                _tzset_unlocked_r
 .text.__locale_mb_cur_max
                0x02019234       0x28 /opt/devkitpro/devkitARM/bin/../lib/gcc/arm-none-eabi/12.2.0/../../../../arm-none-eabi/lib/libg.a(libc_a-locale.o)
                0x02019234                __locale_mb_cur_max
 .text._localeconv_r
                0x0201925c       0x28 /opt/devkitpro/devkitARM/bin/../lib/gcc/arm-none-eabi/12.2.0/../../../../arm-none-eabi/lib/libg.a(libc_a-localeconv.o)
                0x0201925c                _localeconv_r
 .text.__errno  0x02019284       0x10 /opt/devkitpro/devkitARM/bin/../lib/gcc/arm-none-eabi/12.2.0/../../../../arm-none-eabi/lib/libg.a(libc_a-errno.o)
                0x02019284                __errno
 .text.__libc_init_array
                0x02019294       0x90 /opt/devkitpro/devkitARM/bin/../lib/gcc/arm-none-eabi/12.2.0/../../../../arm-none-eabi/lib/libg.a(libc_a-init.o)
                0x02019294                __libc_init_array
 .text.lseek    0x02019324       0x3c /opt/devkitpro/devkitARM/bin/../lib/gcc/arm-none-eabi/12.2.0/../../../../arm-none-eabi/lib/libg.a(libc_a-syslseek.o)
                0x02019324                lseek
 .text.open     0x02019360       0x40 /opt/devkitpro/devkitARM/bin/../lib/gcc/arm-none-eabi/12.2.0/../../../../arm-none-eabi/lib/libg.a(libc_a-sysopen.o)
                0x02019360                open
 .text.read     0x020193a0       0x2c /opt/devkitpro/devkitARM/bin/../lib/gcc/arm-none-eabi/12.2.0/../../../../arm-none-eabi/lib/libg.a(libc_a-sysread.o)
                0x020193a0                read
 .text.access   0x020193cc       0x54 /opt/devkitpro/devkitARM/bin/../lib/gcc/arm-none-eabi/12.2.0/../../../../arm-none-eabi/lib/libg.a(libc_a-access.o)
                0x020193cc                access
 .text.strcpy   0x02019420       0xf0 /opt/devkitpro/devkitARM/bin/../lib/gcc/arm-none-eabi/12.2.0/../../../../arm-none-eabi/lib/libg.a(libc_a-strcpy.o)
                0x02019420                strcpy
 .text.memchr   0x02019510       0xf4 /opt/devkitpro/devkitARM/bin/../lib/gcc/arm-none-eabi/12.2.0/../../../../arm-none-eabi/lib/libg.a(libc_a-memchr-stub.o)
                0x02019510                memchr
 .text.memcpy   0x02019604      0x114 /opt/devkitpro/devkitARM/bin/../lib/gcc/arm-none-eabi/12.2.0/../../../../arm-none-eabi/lib/libg.a(libc_a-memcpy-stub.o)
                0x02019604                memcpy
 .text.div      0x02019718       0x2c /opt/devkitpro/devkitARM/bin/../lib/gcc/arm-none-eabi/12.2.0/../../../../arm-none-eabi/lib/libg.a(libc_a-div.o)
                0x02019718                div
 .text._malloc_trim_r
                0x02019744      0x100 /opt/devkitpro/devkitARM/bin/../lib/gcc/arm-none-eabi/12.2.0/../../../../arm-none-eabi/lib/libg.a(libc_a-freer.o)
                0x02019744                _malloc_trim_r
 .text._free_r  0x02019844      0x2e8 /opt/devkitpro/devkitARM/bin/../lib/gcc/arm-none-eabi/12.2.0/../../../../arm-none-eabi/lib/libg.a(libc_a-freer.o)
                0x02019844                _free_r
 .text._findenv_r
                0x02019b2c       0xd0 /opt/devkitpro/devkitARM/bin/../lib/gcc/arm-none-eabi/12.2.0/../../../../arm-none-eabi/lib/libg.a(libc_a-getenv_r.o)
                0x02019b2c                _findenv_r
 .text._getenv_r
                0x02019bfc       0x1c /opt/devkitpro/devkitARM/bin/../lib/gcc/arm-none-eabi/12.2.0/../../../../arm-none-eabi/lib/libg.a(libc_a-getenv_r.o)
                0x02019bfc                _getenv_r
 .text.__utf8_mbtowc
                0x02019c18      0x308 /opt/devkitpro/devkitARM/bin/../lib/gcc/arm-none-eabi/12.2.0/../../../../arm-none-eabi/lib/libg.a(libc_a-mbtowc_r.o)
                0x02019c18                __utf8_mbtowc
 .text._strtol_l.part.0
                0x02019f20      0x1a8 /opt/devkitpro/devkitARM/bin/../lib/gcc/arm-none-eabi/12.2.0/../../../../arm-none-eabi/lib/libg.a(libc_a-strtol.o)
 .text._strtol_r
                0x0201a0c8       0x64 /opt/devkitpro/devkitARM/bin/../lib/gcc/arm-none-eabi/12.2.0/../../../../arm-none-eabi/lib/libg.a(libc_a-strtol.o)
                0x0201a0c8                _strtol_r
 .text._strtoul_l.constprop.0
                0x0201a12c      0x1c8 /opt/devkitpro/devkitARM/bin/../lib/gcc/arm-none-eabi/12.2.0/../../../../arm-none-eabi/lib/libg.a(libc_a-strtoul.o)
 .text._strtoul_r
                0x0201a2f4       0x30 /opt/devkitpro/devkitARM/bin/../lib/gcc/arm-none-eabi/12.2.0/../../../../arm-none-eabi/lib/libg.a(libc_a-strtoul.o)
                0x0201a2f4                _strtoul_r
 .text.strtoul  0x0201a324       0x34 /opt/devkitpro/devkitARM/bin/../lib/gcc/arm-none-eabi/12.2.0/../../../../arm-none-eabi/lib/libg.a(libc_a-strtoul.o)
                0x0201a324                strtoul
 .text.__utf8_wctomb
                0x0201a358       0xf4 /opt/devkitpro/devkitARM/bin/../lib/gcc/arm-none-eabi/12.2.0/../../../../arm-none-eabi/lib/libg.a(libc_a-wctomb_r.o)
                0x0201a358                __utf8_wctomb
 .text._strtoll_l.constprop.0
                0x0201a44c      0x234 /opt/devkitpro/devkitARM/bin/../lib/gcc/arm-none-eabi/12.2.0/../../../../arm-none-eabi/lib/libg.a(libc_a-strtoll.o)
 .text._strtoll_r
                0x0201a680       0x30 /opt/devkitpro/devkitARM/bin/../lib/gcc/arm-none-eabi/12.2.0/../../../../arm-none-eabi/lib/libg.a(libc_a-strtoll.o)
                0x0201a680                _strtoll_r
 .text._strtoull_l.constprop.0
                0x0201a6b0      0x248 /opt/devkitpro/devkitARM/bin/../lib/gcc/arm-none-eabi/12.2.0/../../../../arm-none-eabi/lib/libg.a(libc_a-strtoull.o)
 .text._strtoull_r
                0x0201a8f8       0x30 /opt/devkitpro/devkitARM/bin/../lib/gcc/arm-none-eabi/12.2.0/../../../../arm-none-eabi/lib/libg.a(libc_a-strtoull.o)
                0x0201a8f8                _strtoull_r
 .text.memalign
                0x0201a928       0x24 /opt/devkitpro/devkitARM/bin/../lib/gcc/arm-none-eabi/12.2.0/../../../../arm-none-eabi/lib/libg.a(libc_a-malign.o)
                0x0201a928                memalign
 .text._memalign_r
                0x0201a94c      0x160 /opt/devkitpro/devkitARM/bin/../lib/gcc/arm-none-eabi/12.2.0/../../../../arm-none-eabi/lib/libg.a(libc_a-malignr.o)
                0x0201a94c                _memalign_r
 .text._mbsnrtowcs_r
                0x0201aaac      0x104 /opt/devkitpro/devkitARM/bin/../lib/gcc/arm-none-eabi/12.2.0/../../../../arm-none-eabi/lib/libg.a(libc_a-mbsnrtowcs.o)
                0x0201aaac                _mbsnrtowcs_r
 .text._wcsrtombs_r
                0x0201abb0       0x2c /opt/devkitpro/devkitARM/bin/../lib/gcc/arm-none-eabi/12.2.0/../../../../arm-none-eabi/lib/libg.a(libc_a-wcsrtombs.o)
                0x0201abb0                _wcsrtombs_r
 .text.iswspace
                0x0201abdc       0x14 /opt/devkitpro/devkitARM/bin/../lib/gcc/arm-none-eabi/12.2.0/../../../../arm-none-eabi/lib/libg.a(libc_a-iswspace.o)
                0x0201abdc                iswspace
 .text.iswspace_l
                0x0201abf0       0x40 /opt/devkitpro/devkitARM/bin/../lib/gcc/arm-none-eabi/12.2.0/../../../../arm-none-eabi/lib/libg.a(libc_a-iswspace_l.o)
                0x0201abf0                iswspace_l
 .text.towctrans
                0x0201ac30       0x48 /opt/devkitpro/devkitARM/bin/../lib/gcc/arm-none-eabi/12.2.0/../../../../arm-none-eabi/lib/libg.a(libc_a-towctrans.o)
                0x0201ac30                towctrans
 .text.towctrans_l
                0x0201ac78      0x23c /opt/devkitpro/devkitARM/bin/../lib/gcc/arm-none-eabi/12.2.0/../../../../arm-none-eabi/lib/libg.a(libc_a-towctrans_l.o)
                0x0201ac78                towctrans_l
 .text.__ssprint_r
                0x0201aeb4      0x18c /opt/devkitpro/devkitARM/bin/../lib/gcc/arm-none-eabi/12.2.0/../../../../arm-none-eabi/lib/libg.a(libc_a-svfiprintf.o)
                0x0201aeb4                __ssprint_r
 .text.get_arg  0x0201b040      0x684 /opt/devkitpro/devkitARM/bin/../lib/gcc/arm-none-eabi/12.2.0/../../../../arm-none-eabi/lib/libg.a(libc_a-svfprintf.o)
 .text._svfprintf_r
                0x0201b6c4     0x3640 /opt/devkitpro/devkitARM/bin/../lib/gcc/arm-none-eabi/12.2.0/../../../../arm-none-eabi/lib/libg.a(libc_a-svfprintf.o)
                0x0201b6c4                _svfprintf_r
 .text.__sflags
                0x0201ed04       0xd0 /opt/devkitpro/devkitARM/bin/../lib/gcc/arm-none-eabi/12.2.0/../../../../arm-none-eabi/lib/libg.a(libc_a-flags.o)
                0x0201ed04                __sflags
 .text.__gettzinfo
                0x0201edd4        0xc /opt/devkitpro/devkitARM/bin/../lib/gcc/arm-none-eabi/12.2.0/../../../../arm-none-eabi/lib/libg.a(libc_a-gettzinfo.o)
                0x0201edd4                __gettzinfo
 .text.gmtime_r
                0x0201ede0      0x26c /opt/devkitpro/devkitARM/bin/../lib/gcc/arm-none-eabi/12.2.0/../../../../arm-none-eabi/lib/libg.a(libc_a-gmtime_r.o)
                0x0201ede0                gmtime_r
 .text.stat     0x0201f04c       0x24 /opt/devkitpro/devkitARM/bin/../lib/gcc/arm-none-eabi/12.2.0/../../../../arm-none-eabi/lib/libg.a(libc_a-sysstat.o)
                0x0201f04c                stat
 .text.frexp    0x0201f070       0xa4 /opt/devkitpro/devkitARM/bin/../lib/gcc/arm-none-eabi/12.2.0/../../../../arm-none-eabi/lib/libg.a(libm_a-s_frexp.o)
                0x0201f070                frexp
 .text.quorem   0x0201f114      0x1d0 /opt/devkitpro/devkitARM/bin/../lib/gcc/arm-none-eabi/12.2.0/../../../../arm-none-eabi/lib/libg.a(libc_a-dtoa.o)
 *fill*         0x0201f2e4        0x4 ff
 .text._dtoa_r  0x0201f2e8     0x1658 /opt/devkitpro/devkitARM/bin/../lib/gcc/arm-none-eabi/12.2.0/../../../../arm-none-eabi/lib/libg.a(libc_a-dtoa.o)
                0x0201f2e8                _dtoa_r
 .text.__env_lock
                0x02020940       0x18 /opt/devkitpro/devkitARM/bin/../lib/gcc/arm-none-eabi/12.2.0/../../../../arm-none-eabi/lib/libg.a(libc_a-envlock.o)
                0x02020940                __env_lock
 .text.__env_unlock
                0x02020958       0x18 /opt/devkitpro/devkitARM/bin/../lib/gcc/arm-none-eabi/12.2.0/../../../../arm-none-eabi/lib/libg.a(libc_a-envlock.o)
                0x02020958                __env_unlock
 .text._Balloc  0x02020970       0x8c /opt/devkitpro/devkitARM/bin/../lib/gcc/arm-none-eabi/12.2.0/../../../../arm-none-eabi/lib/libg.a(libc_a-mprec.o)
                0x02020970                _Balloc
 .text._Bfree   0x020209fc       0x1c /opt/devkitpro/devkitARM/bin/../lib/gcc/arm-none-eabi/12.2.0/../../../../arm-none-eabi/lib/libg.a(libc_a-mprec.o)
                0x020209fc                _Bfree
 .text.__multadd
                0x02020a18      0x100 /opt/devkitpro/devkitARM/bin/../lib/gcc/arm-none-eabi/12.2.0/../../../../arm-none-eabi/lib/libg.a(libc_a-mprec.o)
                0x02020a18                __multadd
 .text.__hi0bits
                0x02020b18       0x60 /opt/devkitpro/devkitARM/bin/../lib/gcc/arm-none-eabi/12.2.0/../../../../arm-none-eabi/lib/libg.a(libc_a-mprec.o)
                0x02020b18                __hi0bits
 .text.__lo0bits
                0x02020b78       0xa0 /opt/devkitpro/devkitARM/bin/../lib/gcc/arm-none-eabi/12.2.0/../../../../arm-none-eabi/lib/libg.a(libc_a-mprec.o)
                0x02020b78                __lo0bits
 .text.__i2b    0x02020c18       0xac /opt/devkitpro/devkitARM/bin/../lib/gcc/arm-none-eabi/12.2.0/../../../../arm-none-eabi/lib/libg.a(libc_a-mprec.o)
                0x02020c18                __i2b
 .text.__multiply
                0x02020cc4      0x218 /opt/devkitpro/devkitARM/bin/../lib/gcc/arm-none-eabi/12.2.0/../../../../arm-none-eabi/lib/libg.a(libc_a-mprec.o)
                0x02020cc4                __multiply
 .text.__pow5mult
                0x02020edc      0x12c /opt/devkitpro/devkitARM/bin/../lib/gcc/arm-none-eabi/12.2.0/../../../../arm-none-eabi/lib/libg.a(libc_a-mprec.o)
                0x02020edc                __pow5mult
 .text.__lshift
                0x02021008      0x144 /opt/devkitpro/devkitARM/bin/../lib/gcc/arm-none-eabi/12.2.0/../../../../arm-none-eabi/lib/libg.a(libc_a-mprec.o)
                0x02021008                __lshift
 .text.__mcmp   0x0202114c       0x54 /opt/devkitpro/devkitARM/bin/../lib/gcc/arm-none-eabi/12.2.0/../../../../arm-none-eabi/lib/libg.a(libc_a-mprec.o)
                0x0202114c                __mcmp
 .text.__mdiff  0x020211a0      0x208 /opt/devkitpro/devkitARM/bin/../lib/gcc/arm-none-eabi/12.2.0/../../../../arm-none-eabi/lib/libg.a(libc_a-mprec.o)
                0x020211a0                __mdiff
 .text.__d2b    0x020213a8      0x128 /opt/devkitpro/devkitARM/bin/../lib/gcc/arm-none-eabi/12.2.0/../../../../arm-none-eabi/lib/libg.a(libc_a-mprec.o)
                0x020213a8                __d2b
 .text._wcsnrtombs_l
                0x020214d0      0x198 /opt/devkitpro/devkitARM/bin/../lib/gcc/arm-none-eabi/12.2.0/../../../../arm-none-eabi/lib/libg.a(libc_a-wcsnrtombs.o)
                0x020214d0                _wcsnrtombs_l
 .text._wcsnrtombs_r
                0x02021668       0x6c /opt/devkitpro/devkitARM/bin/../lib/gcc/arm-none-eabi/12.2.0/../../../../arm-none-eabi/lib/libg.a(libc_a-wcsnrtombs.o)
                0x02021668                _wcsnrtombs_r
 .text.category
                0x020216d4       0x94 /opt/devkitpro/devkitARM/bin/../lib/gcc/arm-none-eabi/12.2.0/../../../../arm-none-eabi/lib/libg.a(libc_a-categories.o)
                0x020216d4                category
 .text.__assert_func
                0x02021768       0x5c /opt/devkitpro/devkitARM/bin/../lib/gcc/arm-none-eabi/12.2.0/../../../../arm-none-eabi/lib/libg.a(libc_a-assert.o)
                0x02021768                __assert_func
 .text.fiprintf
                0x020217c4       0x3c /opt/devkitpro/devkitARM/bin/../lib/gcc/arm-none-eabi/12.2.0/../../../../arm-none-eabi/lib/libg.a(libc_a-fiprintf.o)
                0x020217c4                fiprintf
 .text.abort    0x02021800       0x14 /opt/devkitpro/devkitARM/bin/../lib/gcc/arm-none-eabi/12.2.0/../../../../arm-none-eabi/lib/libg.a(libc_a-abort.o)
                0x02021800                abort
 .text._raise_r
                0x02021814       0x94 /opt/devkitpro/devkitARM/bin/../lib/gcc/arm-none-eabi/12.2.0/../../../../arm-none-eabi/lib/libg.a(libc_a-signal.o)
                0x02021814                _raise_r
 .text.raise    0x020218a8       0x18 /opt/devkitpro/devkitARM/bin/../lib/gcc/arm-none-eabi/12.2.0/../../../../arm-none-eabi/lib/libg.a(libc_a-signal.o)
                0x020218a8                raise
 .text._exit    0x020218c0       0x20 /opt/devkitpro/devkitARM/bin/../lib/gcc/arm-none-eabi/12.2.0/../../../../arm-none-eabi/lib/libsysbase.a(libsysbase_libsysbase_a-_exit.o)
                0x020218c0                _exit
 .text.build_argv
                0x020218e0       0x90 /opt/devkitpro/devkitARM/bin/../lib/gcc/arm-none-eabi/12.2.0/../../../../arm-none-eabi/lib/libsysbase.a(libsysbase_libsysbase_a-build_argv.o)
                0x020218e0                build_argv
 .text._concatenate_path
                0x02021970      0x1c8 /opt/devkitpro/devkitARM/bin/../lib/gcc/arm-none-eabi/12.2.0/../../../../arm-none-eabi/lib/libsysbase.a(libsysbase_libsysbase_a-chdir.o)
                0x02021970                _concatenate_path
 .text.chdir    0x02021b38      0x148 /opt/devkitpro/devkitARM/bin/../lib/gcc/arm-none-eabi/12.2.0/../../../../arm-none-eabi/lib/libsysbase.a(libsysbase_libsysbase_a-chdir.o)
                0x02021b38                chdir
 .text.getcwd   0x02021c80       0x8c /opt/devkitpro/devkitARM/bin/../lib/gcc/arm-none-eabi/12.2.0/../../../../arm-none-eabi/lib/libsysbase.a(libsysbase_libsysbase_a-chdir.o)
                0x02021c80                getcwd
 .text._fstat_r
                0x02021d0c       0x7c /opt/devkitpro/devkitARM/bin/../lib/gcc/arm-none-eabi/12.2.0/../../../../arm-none-eabi/lib/libsysbase.a(libsysbase_libsysbase_a-fstat.o)
                0x02021d0c                _fstat_r
 .text._getpid_r
                0x02021d88       0x14 /opt/devkitpro/devkitARM/bin/../lib/gcc/arm-none-eabi/12.2.0/../../../../arm-none-eabi/lib/libsysbase.a(libsysbase_libsysbase_a-getpid.o)
                0x02021d88                _getpid_r
 .text.__getreent
                0x02021d9c       0x30 /opt/devkitpro/devkitARM/bin/../lib/gcc/arm-none-eabi/12.2.0/../../../../arm-none-eabi/lib/libsysbase.a(libsysbase_libsysbase_a-getreent.o)
                0x02021d9c                __getreent
 .text._gettimeofday_r
                0x02021dcc       0x34 /opt/devkitpro/devkitARM/bin/../lib/gcc/arm-none-eabi/12.2.0/../../../../arm-none-eabi/lib/libsysbase.a(libsysbase_libsysbase_a-gettod.o)
                0x02021dcc                _gettimeofday_r
 .text.__release_handle
                0x02021e00       0x90 /opt/devkitpro/devkitARM/bin/../lib/gcc/arm-none-eabi/12.2.0/../../../../arm-none-eabi/lib/libsysbase.a(libsysbase_libsysbase_a-handle_manager.o)
                0x02021e00                __release_handle
 .text.__alloc_handle
                0x02021e90       0xb4 /opt/devkitpro/devkitARM/bin/../lib/gcc/arm-none-eabi/12.2.0/../../../../arm-none-eabi/lib/libsysbase.a(libsysbase_libsysbase_a-handle_manager.o)
                0x02021e90                __alloc_handle
 .text.__get_handle
                0x02021f44       0x40 /opt/devkitpro/devkitARM/bin/../lib/gcc/arm-none-eabi/12.2.0/../../../../arm-none-eabi/lib/libsysbase.a(libsysbase_libsysbase_a-handle_manager.o)
                0x02021f44                __get_handle
 .text._close_r
                0x02021f84       0xfc /opt/devkitpro/devkitARM/bin/../lib/gcc/arm-none-eabi/12.2.0/../../../../arm-none-eabi/lib/libsysbase.a(libsysbase_libsysbase_a-handle_manager.o)
                0x02021f84                _close_r
 .text.null_write
                0x02022080        0x8 /opt/devkitpro/devkitARM/bin/../lib/gcc/arm-none-eabi/12.2.0/../../../../arm-none-eabi/lib/libsysbase.a(libsysbase_libsysbase_a-iosupport.o)
 .text.setDefaultDevice
                0x02022088       0x18 /opt/devkitpro/devkitARM/bin/../lib/gcc/arm-none-eabi/12.2.0/../../../../arm-none-eabi/lib/libsysbase.a(libsysbase_libsysbase_a-iosupport.o)
                0x02022088                setDefaultDevice
 .text.FindDevice
                0x020220a0       0xd4 /opt/devkitpro/devkitARM/bin/../lib/gcc/arm-none-eabi/12.2.0/../../../../arm-none-eabi/lib/libsysbase.a(libsysbase_libsysbase_a-iosupport.o)
                0x020220a0                FindDevice
 .text.AddDevice
                0x02022174       0xa4 /opt/devkitpro/devkitARM/bin/../lib/gcc/arm-none-eabi/12.2.0/../../../../arm-none-eabi/lib/libsysbase.a(libsysbase_libsysbase_a-iosupport.o)
                0x02022174                AddDevice
 .text.GetDeviceOpTab
                0x02022218       0x24 /opt/devkitpro/devkitARM/bin/../lib/gcc/arm-none-eabi/12.2.0/../../../../arm-none-eabi/lib/libsysbase.a(libsysbase_libsysbase_a-iosupport.o)
                0x02022218                GetDeviceOpTab
 .text._isatty_r
                0x0202223c        0x8 /opt/devkitpro/devkitARM/bin/../lib/gcc/arm-none-eabi/12.2.0/../../../../arm-none-eabi/lib/libsysbase.a(libsysbase_libsysbase_a-isatty.o)
                0x0202223c                _isatty_r
 .text._kill_r  0x02022244       0x14 /opt/devkitpro/devkitARM/bin/../lib/gcc/arm-none-eabi/12.2.0/../../../../arm-none-eabi/lib/libsysbase.a(libsysbase_libsysbase_a-kill.o)
                0x02022244                _kill_r
 .text._lseek_r
                0x02022258       0x88 /opt/devkitpro/devkitARM/bin/../lib/gcc/arm-none-eabi/12.2.0/../../../../arm-none-eabi/lib/libsysbase.a(libsysbase_libsysbase_a-lseek.o)
                0x02022258                _lseek_r
 .text._open_r  0x020222e0       0xc8 /opt/devkitpro/devkitARM/bin/../lib/gcc/arm-none-eabi/12.2.0/../../../../arm-none-eabi/lib/libsysbase.a(libsysbase_libsysbase_a-open.o)
                0x020222e0                _open_r
 .text._read_r  0x020223a8       0x84 /opt/devkitpro/devkitARM/bin/../lib/gcc/arm-none-eabi/12.2.0/../../../../arm-none-eabi/lib/libsysbase.a(libsysbase_libsysbase_a-read.o)
                0x020223a8                _read_r
 .text._sbrk_r  0x0202242c       0x7c /opt/devkitpro/devkitARM/bin/../lib/gcc/arm-none-eabi/12.2.0/../../../../arm-none-eabi/lib/libsysbase.a(libsysbase_libsysbase_a-sbrk.o)
                0x0202242c                _sbrk_r
 .text._stat_r  0x020224a8       0x70 /opt/devkitpro/devkitARM/bin/../lib/gcc/arm-none-eabi/12.2.0/../../../../arm-none-eabi/lib/libsysbase.a(libsysbase_libsysbase_a-stat.o)
                0x020224a8                _stat_r
 .text.__libc_lock_acquire
                0x02022518       0x20 /opt/devkitpro/devkitARM/bin/../lib/gcc/arm-none-eabi/12.2.0/../../../../arm-none-eabi/lib/libsysbase.a(libsysbase_libsysbase_a-syscall_support.o)
                0x02022518                __libc_lock_acquire
 .text.__libc_lock_release
                0x02022538       0x20 /opt/devkitpro/devkitARM/bin/../lib/gcc/arm-none-eabi/12.2.0/../../../../arm-none-eabi/lib/libsysbase.a(libsysbase_libsysbase_a-syscall_support.o)
                0x02022538                __libc_lock_release
 .text.__libc_lock_acquire_recursive
                0x02022558       0x20 /opt/devkitpro/devkitARM/bin/../lib/gcc/arm-none-eabi/12.2.0/../../../../arm-none-eabi/lib/libsysbase.a(libsysbase_libsysbase_a-syscall_support.o)
                0x02022558                __libc_lock_acquire_recursive
 .text.__libc_lock_release_recursive
                0x02022578       0x20 /opt/devkitpro/devkitARM/bin/../lib/gcc/arm-none-eabi/12.2.0/../../../../arm-none-eabi/lib/libsysbase.a(libsysbase_libsysbase_a-syscall_support.o)
                0x02022578                __libc_lock_release_recursive
 .text._write_r
                0x02022598       0x84 /opt/devkitpro/devkitARM/bin/../lib/gcc/arm-none-eabi/12.2.0/../../../../arm-none-eabi/lib/libsysbase.a(libsysbase_libsysbase_a-write.o)
                0x02022598                _write_r
 *fill*         0x0202261c        0x4 ff
 .text._write_r.__stub
                0x02022620      0x29c linker stubs
 *(EXCLUDE_FILE(*.twl*) .gnu.warning)
 *(EXCLUDE_FILE(*.twl*) .gnu.linkonce.t*)
 *(.glue_7)
 .glue_7        0x020228f0        0x0 linker stubs
 *(.glue_7t)
 .glue_7t       0x020228f0        0x0 linker stubs
                0x020228f0                        . = ALIGN (0x4)

.vfp11_veneer   0x020228f0        0x0
 .vfp11_veneer  0x020228f0        0x0 linker stubs

.v4_bx          0x020228f0        0x0
 .v4_bx         0x020228f0        0x0 linker stubs

.iplt           0x020228f0        0x0
 .iplt          0x020228f0        0x0 /opt/devkitpro/devkitARM/bin/../lib/gcc/arm-none-eabi/12.2.0/../../../../arm-none-eabi/lib/ds_arm9_crt0.o

.fini           0x020228f0       0x18
 *(.fini)
 .fini          0x020228f0        0xc /opt/devkitpro/devkitARM/bin/../lib/gcc/arm-none-eabi/12.2.0/crti.o
                0x020228f0                _fini
 .fini          0x020228fc        0xc /opt/devkitpro/devkitARM/bin/../lib/gcc/arm-none-eabi/12.2.0/crtn.o
                0x02022908                        __text_end = .

.rodata         0x02022908     0x6760
 *(EXCLUDE_FILE(*.twl*) .rodata)
 .rodata        0x02022908       0x50 /opt/devkitpro/nflib/lib/libnflib.a(nf_basic.o)
 *all.rodata*(*)
 *(EXCLUDE_FILE(*.twl*) .roda)
 *(EXCLUDE_FILE(*.twl*) .rodata.*)
 .rodata.str1.4
                0x02022958       0x2f main.o
 *fill*         0x02022987        0x1 ff
 .rodata.str1.4
                0x02022988       0x27 /opt/devkitpro/nflib/lib/libnflib.a(nf_2d.o)
 *fill*         0x020229af        0x1 ff
 .rodata.str1.4
                0x020229b0      0x653 /opt/devkitpro/nflib/lib/libnflib.a(nf_basic.o)
                                0x667 (size before relaxing)
 *fill*         0x02023003        0x1 ff
 .rodata.str1.4
                0x02023004       0x64 /opt/devkitpro/nflib/lib/libnflib.a(nf_tiledbg.o)
                                 0x70 (size before relaxing)
 .rodata.nitroFSInit.str1.4
                0x02023068        0x8 /opt/devkitpro/libnds/lib/libfilesystem.a(nitrofs.o)
 .rodata.str1.4
                0x02023068        0xe /opt/devkitpro/libnds/lib/libfilesystem.a(nitrofs.o)
 *fill*         0x02023076        0x2 ff
 .rodata.fatMount.part.0.str1.4
                0x02023078        0x2 /opt/devkitpro/libnds/lib/libfat.a(libfat.o)
 *fill*         0x0202307a        0x2 ff
 .rodata.fatInit.str1.4
                0x0202307c        0x3 /opt/devkitpro/libnds/lib/libfat.a(libfat.o)
 *fill*         0x0202307f        0x1 ff
 .rodata.str1.4
                0x02023080        0x4 /opt/devkitpro/libnds/lib/libfat.a(libfat.o)
 .rodata.dotab_fat
                0x02023084       0x70 /opt/devkitpro/libnds/lib/libfat.a(libfat.o)
 .rodata.str1.4
                0x020230f4        0x3 /opt/devkitpro/libnds/lib/libfat.a(disc.o)
                                  0x8 (size before relaxing)
 *fill*         0x020230f7        0x1 ff
 .rodata._FAT_disc_interfaces
                0x020230f8       0x18 /opt/devkitpro/libnds/lib/libfat.a(disc.o)
                0x020230f8                _FAT_disc_interfaces
 .rodata._FAT_directory_entryFromPath.str1.4
                0x02023110        0x7 /opt/devkitpro/libnds/lib/libfat.a(directory.o)
 .rodata.ILLEGAL_ALIAS_CHARACTERS
                0x02023110       0x12 /opt/devkitpro/libnds/lib/libfat.a(directory.o)
 *fill*         0x02023122        0x2 ff
 .rodata.ILLEGAL_LFN_CHARACTERS
                0x02023124        0xa /opt/devkitpro/libnds/lib/libfat.a(directory.o)
 *fill*         0x0202312e        0x2 ff
 .rodata.LFN_offset_table
                0x02023130       0x34 /opt/devkitpro/libnds/lib/libfat.a(directory.o)
 .rodata.FAT_SIG
                0x02023164        0x3 /opt/devkitpro/libnds/lib/libfat.a(partition.o)
 *fill*         0x02023167        0x1 ff
 .rodata.FS_TWL_SIG
                0x02023168        0x8 /opt/devkitpro/libnds/lib/libfat.a(partition.o)
 .rodata.con_write.str1.4
                0x02023170       0x30 /opt/devkitpro/libnds/lib/libnds9.a(console.o)
 .rodata.con_write
                0x020231a0       0xd4 /opt/devkitpro/libnds/lib/libnds9.a(console.o)
 .rodata.str1.4
                0x02023274       0x14 /opt/devkitpro/libnds/lib/libnds9.a(console.o)
 .rodata.dotab_stdout
                0x02023288       0x70 /opt/devkitpro/libnds/lib/libnds9.a(console.o)
 .rodata.default_font_bin
                0x020232f8     0x2000 /opt/devkitpro/libnds/lib/libnds9.a(default_font.bin.o)
                0x020232f8                default_font_bin
                0x020252f8                default_font_bin_end
 .rodata.SIN_LUT
                0x020252f8      0x102 /opt/devkitpro/libnds/lib/libnds9.a(trig.o)
                0x020252f8                SIN_LUT
 .rodata._mbrtowc_r.str1.4
                0x020253fa       0x14 /opt/devkitpro/devkitARM/bin/../lib/gcc/arm-none-eabi/12.2.0/../../../../arm-none-eabi/lib/libg.a(libc_a-mbrtowc.o)
                                  0x1 (size before relaxing)
 *fill*         0x020253fa        0x2 ff
 .rodata._ctype_
                0x020253fc      0x101 /opt/devkitpro/devkitARM/bin/../lib/gcc/arm-none-eabi/12.2.0/../../../../arm-none-eabi/lib/libg.a(libc_a-ctype_.o)
                0x020253fc                _ctype_
 *fill*         0x020254fd        0x3 ff
 .rodata.basefix.0
                0x02025500       0x22 /opt/devkitpro/devkitARM/bin/../lib/gcc/arm-none-eabi/12.2.0/../../../../arm-none-eabi/lib/libg.a(libc_a-svfiscanf.o)
 .rodata._vfiprintf_r.str1.1
                0x02025522       0x29 /opt/devkitpro/devkitARM/bin/../lib/gcc/arm-none-eabi/12.2.0/../../../../arm-none-eabi/lib/libg.a(libc_a-vfiprintf.o)
 *fill*         0x0202554b        0x1 ff
 .rodata.zeroes.0
                0x0202554c       0x10 /opt/devkitpro/devkitARM/bin/../lib/gcc/arm-none-eabi/12.2.0/../../../../arm-none-eabi/lib/libg.a(libc_a-vfiprintf.o)
 .rodata.blanks.1
                0x0202555c       0x10 /opt/devkitpro/devkitARM/bin/../lib/gcc/arm-none-eabi/12.2.0/../../../../arm-none-eabi/lib/libg.a(libc_a-vfiprintf.o)
 .rodata._puts_r.str1.4
                0x0202556c       0x14 /opt/devkitpro/devkitARM/bin/../lib/gcc/arm-none-eabi/12.2.0/../../../../arm-none-eabi/lib/libg.a(libc_a-puts.o)
                                  0x2 (size before relaxing)
 .rodata._DAYS_BEFORE_MONTH
                0x0202556c       0x30 /opt/devkitpro/devkitARM/bin/../lib/gcc/arm-none-eabi/12.2.0/../../../../arm-none-eabi/lib/libg.a(libc_a-mktime.o)
 .rodata.DAYS_IN_MONTH
                0x0202559c       0x30 /opt/devkitpro/devkitARM/bin/../lib/gcc/arm-none-eabi/12.2.0/../../../../arm-none-eabi/lib/libg.a(libc_a-mktime.o)
 .rodata.__month_lengths
                0x020255cc       0x60 /opt/devkitpro/devkitARM/bin/../lib/gcc/arm-none-eabi/12.2.0/../../../../arm-none-eabi/lib/libg.a(libc_a-month_lengths.o)
                0x020255cc                __month_lengths
 .rodata._tzset_unlocked_r.str1.4
                0x0202562c       0x67 /opt/devkitpro/devkitARM/bin/../lib/gcc/arm-none-eabi/12.2.0/../../../../arm-none-eabi/lib/libg.a(libc_a-tzset_r.o)
                                 0x6b (size before relaxing)
 .rodata.str1.4
                0x02025693        0x4 /opt/devkitpro/devkitARM/bin/../lib/gcc/arm-none-eabi/12.2.0/../../../../arm-none-eabi/lib/libg.a(libc_a-tzvars.o)
 *fill*         0x02025693        0x1 ff
 .rodata.str1.4
                0x02025694       0x44 /opt/devkitpro/devkitARM/bin/../lib/gcc/arm-none-eabi/12.2.0/../../../../arm-none-eabi/lib/libg.a(libc_a-locale.o)
                                 0x4c (size before relaxing)
 .rodata.__action_table
                0x020256d8       0x6c /opt/devkitpro/devkitARM/bin/../lib/gcc/arm-none-eabi/12.2.0/../../../../arm-none-eabi/lib/libg.a(libc_a-svfiprintf.o)
                0x020256d8                __action_table
 .rodata.__state_table
                0x02025744       0x6c /opt/devkitpro/devkitARM/bin/../lib/gcc/arm-none-eabi/12.2.0/../../../../arm-none-eabi/lib/libg.a(libc_a-svfiprintf.o)
                0x02025744                __state_table
 .rodata.__chclass
                0x020257b0      0x100 /opt/devkitpro/devkitARM/bin/../lib/gcc/arm-none-eabi/12.2.0/../../../../arm-none-eabi/lib/libg.a(libc_a-svfiprintf.o)
                0x020257b0                __chclass
 .rodata._svfprintf_r.str1.1
                0x020258b0       0x12 /opt/devkitpro/devkitARM/bin/../lib/gcc/arm-none-eabi/12.2.0/../../../../arm-none-eabi/lib/libg.a(libc_a-svfprintf.o)
                                 0x3b (size before relaxing)
 *fill*         0x020258c2        0x2 ff
 .rodata.zeroes.0
                0x020258c4       0x10 /opt/devkitpro/devkitARM/bin/../lib/gcc/arm-none-eabi/12.2.0/../../../../arm-none-eabi/lib/libg.a(libc_a-svfprintf.o)
 .rodata.blanks.1
                0x020258d4       0x10 /opt/devkitpro/devkitARM/bin/../lib/gcc/arm-none-eabi/12.2.0/../../../../arm-none-eabi/lib/libg.a(libc_a-svfprintf.o)
 .rodata._dtoa_r.str1.4
                0x020258e4       0x64 /opt/devkitpro/devkitARM/bin/../lib/gcc/arm-none-eabi/12.2.0/../../../../arm-none-eabi/lib/libg.a(libc_a-dtoa.o)
 .rodata.__multadd.str1.4
                0x02025948       0x3d /opt/devkitpro/devkitARM/bin/../lib/gcc/arm-none-eabi/12.2.0/../../../../arm-none-eabi/lib/libg.a(libc_a-mprec.o)
                                 0x51 (size before relaxing)
 *fill*         0x02025985        0x3 ff
 .rodata.p05.0  0x02025988        0xc /opt/devkitpro/devkitARM/bin/../lib/gcc/arm-none-eabi/12.2.0/../../../../arm-none-eabi/lib/libg.a(libc_a-mprec.o)
 *fill*         0x02025994        0x4 ff
 .rodata.__mprec_bigtens
                0x02025998       0x28 /opt/devkitpro/devkitARM/bin/../lib/gcc/arm-none-eabi/12.2.0/../../../../arm-none-eabi/lib/libg.a(libc_a-mprec.o)
                0x02025998                __mprec_bigtens
 .rodata.__mprec_tens
                0x020259c0       0xc8 /opt/devkitpro/devkitARM/bin/../lib/gcc/arm-none-eabi/12.2.0/../../../../arm-none-eabi/lib/libg.a(libc_a-mprec.o)
                0x020259c0                __mprec_tens
 .rodata.categories
                0x02025a88     0x3528 /opt/devkitpro/devkitARM/bin/../lib/gcc/arm-none-eabi/12.2.0/../../../../arm-none-eabi/lib/libg.a(libc_a-categories.o)
 .rodata.__assert_func.str1.4
                0x02028fb0       0x3f /opt/devkitpro/devkitARM/bin/../lib/gcc/arm-none-eabi/12.2.0/../../../../arm-none-eabi/lib/libg.a(libc_a-assert.o)
                                 0x43 (size before relaxing)
 *fill*         0x02028fef        0x1 ff
 .rodata.AddDevice.str1.4
                0x02028ff0        0x8 /opt/devkitpro/devkitARM/bin/../lib/gcc/arm-none-eabi/12.2.0/../../../../arm-none-eabi/lib/libsysbase.a(libsysbase_libsysbase_a-iosupport.o)
 .rodata.dotab_stdnull
                0x02028ff8       0x70 /opt/devkitpro/devkitARM/bin/../lib/gcc/arm-none-eabi/12.2.0/../../../../arm-none-eabi/lib/libsysbase.a(libsysbase_libsysbase_a-iosupport.o)
                0x02028ff8                dotab_stdnull
 *(EXCLUDE_FILE(*.twl*) .gnu.linkonce.r*)
                0x02029068                        . = ALIGN (0x4)

.ARM.extab
 *(.ARM.extab* .gnu.linkonce.armextab.*)
                0x02029068                        __exidx_start = .

ARM.exidx
 *(.ARM.exidx* .gnu.linkonce.armexidx.*)
                0x02029068                        __exidx_end = .
                0x02029068                        . = ALIGN (0x4)
                0x02029068                        PROVIDE (__preinit_array_start = .)

.preinit_array
 *(.preinit_array)
                0x02029068                        PROVIDE (__preinit_array_end = .)
                0x02029068                        PROVIDE (__init_array_start = .)

.init_array     0x02029068        0x4
 *(SORT_BY_NAME(.init_array.*))
 *(.init_array)
 .init_array    0x02029068        0x4 /opt/devkitpro/devkitARM/bin/../lib/gcc/arm-none-eabi/12.2.0/crtbegin.o
                0x0202906c                        PROVIDE (__init_array_end = .)
                [!provide]                        PROVIDE (__fini_array_start = .)

.fini_array     0x0202906c        0x4
 *(.fini_array)
 .fini_array    0x0202906c        0x4 /opt/devkitpro/devkitARM/bin/../lib/gcc/arm-none-eabi/12.2.0/crtbegin.o
 *(SORT_BY_NAME(.fini_array.*))
                [!provide]                        PROVIDE (__fini_array_end = .)

.ctors          0x02029070        0x0
 *crtbegin.o(.ctors)
 *(EXCLUDE_FILE(*crtend.o) .ctors)
 *(SORT_BY_NAME(.ctors.*))
 *(.ctors)
                0x02029070                        . = ALIGN (0x4)

.dtors          0x02029070        0x0
 *crtbegin.o(.dtors)
 *(EXCLUDE_FILE(*crtend.o) .dtors)
 *(SORT_BY_NAME(.dtors.*))
 *(.dtors)
                0x02029070                        . = ALIGN (0x4)

.eh_frame       0x02029070        0x4
 *(.eh_frame)
 .eh_frame      0x02029070        0x0 /opt/devkitpro/devkitARM/bin/../lib/gcc/arm-none-eabi/12.2.0/crtbegin.o
 .eh_frame      0x02029070        0x4 /opt/devkitpro/devkitARM/bin/../lib/gcc/arm-none-eabi/12.2.0/crtend.o
                0x02029074                        . = ALIGN (0x4)

.gcc_except_table
                0x02029074        0x0
 *(.gcc_except_table)
                0x02029074                        . = ALIGN (0x4)

.jcr
 *(.jcr)

.got
 *(.got.plt)
 *(.got)
 *(.rel.got)

.ewram          0x02029074        0x0
                0x02029074                        __ewram_start = ABSOLUTE (.)
 *(.ewram)
 *ewram.*(.text)
                0x02029074                        . = ALIGN (0x4)

.data           0x02029074     0x2524
                0x02029074                        __data_start = ABSOLUTE (.)
 *(EXCLUDE_FILE(*.twl*) .data)
 .data          0x02029074       0x28 /opt/devkitpro/libnds/lib/libnds9.a(mpu_setup.o)
 *(EXCLUDE_FILE(*.twl*) .data.*)
 .data.ndsFileFD
                0x0202909c        0x4 /opt/devkitpro/libnds/lib/libfilesystem.a(nitrofs.o)
 .data.nitroFSdevoptab
                0x020290a0       0x70 /opt/devkitpro/libnds/lib/libfilesystem.a(nitrofs.o)
                0x020290a0                nitroFSdevoptab
 .data.syspaths
                0x02029110        0x8 /opt/devkitpro/libnds/lib/libfilesystem.a(nitrofs.o)
                0x02029110                syspaths
 .data.currentConsole
                0x02029118        0x4 /opt/devkitpro/libnds/lib/libnds9.a(console.o)
                0x02029118                currentConsole
 .data.defaultConsole
                0x0202911c       0x5c /opt/devkitpro/libnds/lib/libnds9.a(console.o)
                0x0202911c                defaultConsole
 .data.firstConsoleInit.0
                0x02029178        0x1 /opt/devkitpro/libnds/lib/libnds9.a(console.o)
 *fill*         0x02029179        0x3 ff
 .data.oamMain  0x0202917c       0x18 /opt/devkitpro/libnds/lib/libnds9.a(sprite.o)
                0x0202917c                oamMain
 .data.oamSub   0x02029194       0x18 /opt/devkitpro/libnds/lib/libnds9.a(sprite.o)
                0x02029194                oamSub
 .data.count    0x020291ac        0x1 /opt/devkitpro/libnds/lib/libnds9.a(keys.o)
 .data.delay    0x020291ad        0x1 /opt/devkitpro/libnds/lib/libnds9.a(keys.o)
 .data.repeat   0x020291ae        0x1 /opt/devkitpro/libnds/lib/libnds9.a(keys.o)
 *fill*         0x020291af        0x1 ff
 .data.fifo_buffer_free
                0x020291b0        0x4 /opt/devkitpro/libnds/lib/libnds9.a(fifosystem.o)
                0x020291b0                fifo_buffer_free
 .data.fifo_freewords
                0x020291b4        0x4 /opt/devkitpro/libnds/lib/libnds9.a(fifosystem.o)
                0x020291b4                fifo_freewords
 .data.fifo_receive_queue
                0x020291b8        0x4 /opt/devkitpro/libnds/lib/libnds9.a(fifosystem.o)
                0x020291b8                fifo_receive_queue
 .data.fifo_send_queue
                0x020291bc        0x4 /opt/devkitpro/libnds/lib/libnds9.a(fifosystem.o)
                0x020291bc                fifo_send_queue
 .data.bgControl
                0x020291c0       0x20 /opt/devkitpro/libnds/lib/libnds9.a(background.o)
                0x020291c0                bgControl
 .data.bgScrollTable
                0x020291e0       0x20 /opt/devkitpro/libnds/lib/libnds9.a(background.o)
                0x020291e0                bgScrollTable
 .data.bgTransform
                0x02029200       0x20 /opt/devkitpro/libnds/lib/libnds9.a(background.o)
                0x02029200                bgTransform
 .data.__malloc_sbrk_base
                0x02029220        0x4 /opt/devkitpro/devkitARM/bin/../lib/gcc/arm-none-eabi/12.2.0/../../../../arm-none-eabi/lib/libg.a(libc_a-mallocr.o)
                0x02029220                __malloc_sbrk_base
 .data.__malloc_trim_threshold
                0x02029224        0x4 /opt/devkitpro/devkitARM/bin/../lib/gcc/arm-none-eabi/12.2.0/../../../../arm-none-eabi/lib/libg.a(libc_a-mallocr.o)
                0x02029224                __malloc_trim_threshold
 .data.__malloc_av_
                0x02029228      0x408 /opt/devkitpro/devkitARM/bin/../lib/gcc/arm-none-eabi/12.2.0/../../../../arm-none-eabi/lib/libg.a(libc_a-mallocr.o)
                0x02029228                __malloc_av_
 .data.__sglue  0x02029630        0xc /opt/devkitpro/devkitARM/bin/../lib/gcc/arm-none-eabi/12.2.0/../../../../arm-none-eabi/lib/libg.a(libc_a-findfp.o)
                0x02029630                __sglue
 .data._tzname  0x0202963c        0x8 /opt/devkitpro/devkitARM/bin/../lib/gcc/arm-none-eabi/12.2.0/../../../../arm-none-eabi/lib/libg.a(libc_a-tzvars.o)
                0x0202963c                _tzname
 .data.__global_locale
                0x02029644      0x16c /opt/devkitpro/devkitARM/bin/../lib/gcc/arm-none-eabi/12.2.0/../../../../arm-none-eabi/lib/libg.a(libc_a-locale.o)
                0x02029644                __global_locale
 .data._impure_ptr
                0x020297b0        0x4 /opt/devkitpro/devkitARM/bin/../lib/gcc/arm-none-eabi/12.2.0/../../../../arm-none-eabi/lib/libg.a(libc_a-impure.o)
                0x020297b0                _impure_ptr
 *fill*         0x020297b4        0x4 ff
 .data._impure_data
                0x020297b8      0x120 /opt/devkitpro/devkitARM/bin/../lib/gcc/arm-none-eabi/12.2.0/../../../../arm-none-eabi/lib/libg.a(libc_a-impure.o)
                0x020297b8                _impure_data
 .data.caseconv_table
                0x020298d8      0x7b0 /opt/devkitpro/devkitARM/bin/../lib/gcc/arm-none-eabi/12.2.0/../../../../arm-none-eabi/lib/libg.a(libc_a-towctrans_l.o)
 .data.tzinfo   0x0202a088       0x58 /opt/devkitpro/devkitARM/bin/../lib/gcc/arm-none-eabi/12.2.0/../../../../arm-none-eabi/lib/libg.a(libc_a-gettzinfo.o)
 .data.environ  0x0202a0e0        0x4 /opt/devkitpro/devkitARM/bin/../lib/gcc/arm-none-eabi/12.2.0/../../../../arm-none-eabi/lib/libg.a(libc_a-environ.o)
                0x0202a0e0                environ
 .data._current_working_directory
                0x0202a0e4      0x400 /opt/devkitpro/devkitARM/bin/../lib/gcc/arm-none-eabi/12.2.0/../../../../arm-none-eabi/lib/libsysbase.a(libsysbase_libsysbase_a-chdir.o)
 .data.handles  0x0202a4e4     0x1000 /opt/devkitpro/devkitARM/bin/../lib/gcc/arm-none-eabi/12.2.0/../../../../arm-none-eabi/lib/libsysbase.a(libsysbase_libsysbase_a-handle_manager.o)
 .data.__stderr_handle
                0x0202b4e4        0xc /opt/devkitpro/devkitARM/bin/../lib/gcc/arm-none-eabi/12.2.0/../../../../arm-none-eabi/lib/libsysbase.a(libsysbase_libsysbase_a-handle_manager.o)
 .data.__stdout_handle
                0x0202b4f0        0xc /opt/devkitpro/devkitARM/bin/../lib/gcc/arm-none-eabi/12.2.0/../../../../arm-none-eabi/lib/libsysbase.a(libsysbase_libsysbase_a-handle_manager.o)
 .data.__stdin_handle
                0x0202b4fc        0xc /opt/devkitpro/devkitARM/bin/../lib/gcc/arm-none-eabi/12.2.0/../../../../arm-none-eabi/lib/libsysbase.a(libsysbase_libsysbase_a-handle_manager.o)
 .data.devoptab_list
                0x0202b508       0x8c /opt/devkitpro/devkitARM/bin/../lib/gcc/arm-none-eabi/12.2.0/../../../../arm-none-eabi/lib/libsysbase.a(libsysbase_libsysbase_a-iosupport.o)
                0x0202b508                devoptab_list
 .data.defaultDevice
                0x0202b594        0x4 /opt/devkitpro/devkitARM/bin/../lib/gcc/arm-none-eabi/12.2.0/../../../../arm-none-eabi/lib/libsysbase.a(libsysbase_libsysbase_a-iosupport.o)
 *(EXCLUDE_FILE(*.twl*) .gnu.linkonce.d*)
                0x0202b598                        . = ALIGN (0x4)
                0x0202b598                        __data_end = ABSOLUTE (.)
                0x0202b598                        __bss_vma = .

.igot.plt       0x0202b598        0x0
 .igot.plt      0x0202b598        0x0 /opt/devkitpro/devkitARM/bin/../lib/gcc/arm-none-eabi/12.2.0/../../../../arm-none-eabi/lib/ds_arm9_crt0.o

.dtcm           0x02ff0000        0x0 load address 0x0202b598
                0x0202b598                        __dtcm_lma = LOADADDR (.dtcm)
                0x02ff0000                        __dtcm_start = ABSOLUTE (.)
 *(.dtcm)
 *(.dtcm.*)
                0x02ff0000                        . = ALIGN (0x4)
                0x02ff0000                        __dtcm_end = ABSOLUTE (.)

.itcm           0x01000100      0x194 load address 0x0202b598
                0x0202b598                        __itcm_lma = LOADADDR (.itcm)
                0x01000100                        __itcm_start = ABSOLUTE (.)
 *(.itcm)
 .itcm          0x01000100       0xc8 /opt/devkitpro/libnds/lib/libnds9.a(interrupts.o)
                0x01000100                irqTable
 .itcm          0x010001c8       0xcc /opt/devkitpro/libnds/lib/libnds9.a(interruptDispatcher.o)
                0x010001c8                IntrMain
 *.itcm*(.text .stub .text.*)
                0x01000294                        . = ALIGN (0x4)
                0x01000294                        __itcm_end = ABSOLUTE (.)

.vectors        0x01000000        0x0 load address 0x0202b72c
                0x0202b72c                        __vectors_lma = LOADADDR (.vectors)
                0x01000000                        __vectors_start = ABSOLUTE (.)
 *(.vectors .vectors.*)
                0x01000000                        . = ALIGN (0x4)
                0x01000000                        __vectors_end = ABSOLUTE (.)

.sbss           0x02ff0000        0x0
                0x02ff0000                        __sbss_start = ABSOLUTE (.)
                0x02ff0000                        __sbss_start__ = ABSOLUTE (.)
 *(.sbss)
                0x02ff0000                        . = ALIGN (0x4)
                0x02ff0000                        __sbss_end = ABSOLUTE (.)

.bss            0x0202b598     0x86ac
                0x0202b598                        __bss_start = ABSOLUTE (.)
                0x0202b598                        __bss_start__ = ABSOLUTE (.)
 *(EXCLUDE_FILE(*.twl*) .dynbss)
 *(EXCLUDE_FILE(*.twl*) .gnu.linkonce.b*)
 *(EXCLUDE_FILE(*.twl*) .bss*)
 .bss.completed.1
                0x0202b598        0x1 /opt/devkitpro/devkitARM/bin/../lib/gcc/arm-none-eabi/12.2.0/crtbegin.o
 *fill*         0x0202b599        0x3 
 .bss.object.0  0x0202b59c       0x18 /opt/devkitpro/devkitARM/bin/../lib/gcc/arm-none-eabi/12.2.0/crtbegin.o
 .bss           0x0202b5b4       0x40 /opt/devkitpro/nflib/lib/libnflib.a(nf_basic.o)
                0x0202b5b4                NF_ROOTFOLDER
 .bss           0x0202b5f4     0x5378 /opt/devkitpro/nflib/lib/libnflib.a(nf_sprite256.o)
                0x0202b5f4                NF_SPRPALSLOT
                0x0202b634                NF_SPRVRAM
                0x0202be6c                NF_SPRITEOAM
                0x0202e26c                NF_SPR256VRAM
                0x0202f66c                NF_SPR256PAL
                0x0202f86c                NF_SPR256GFX
                0x0203046c                NF_BUFFER_SPR256PAL
                0x0203056c                NF_BUFFER_SPR256GFX
 .bss           0x0203096c     0x16c8 /opt/devkitpro/nflib/lib/libnflib.a(nf_tiledbg.o)
                0x0203096c                NF_BANKS_TILES
                0x02030970                NF_BANKS_MAPS
                0x02030974                NF_TILEBLOCKS
                0x02030984                NF_MAPBLOCKS
                0x020309a4                NF_EXBGPAL
                0x02030fa4                NF_TILEDBG_LAYERS
                0x02031034                NF_TILEDBG
                0x02031d34                NF_BUFFER_BGPAL
                0x02031e34                NF_BUFFER_BGMAP
                0x02031f34                NF_BUFFER_BGTILES
 .bss.cardRead  0x02032034        0x1 /opt/devkitpro/libnds/lib/libfilesystem.a(nitrofs.o)
 *fill*         0x02032035        0x1 
 .bss.chdirpathid
                0x02032036        0x2 /opt/devkitpro/libnds/lib/libfilesystem.a(nitrofs.o)
 .bss.fatOffset
                0x02032038        0x4 /opt/devkitpro/libnds/lib/libfilesystem.a(nitrofs.o)
 .bss.fntOffset
                0x0203203c        0x4 /opt/devkitpro/libnds/lib/libfilesystem.a(nitrofs.o)
 .bss.ndsFileLastpos
                0x02032040        0x4 /opt/devkitpro/libnds/lib/libfilesystem.a(nitrofs.o)
 .bss.temp.0    0x02032044      0x200 /opt/devkitpro/libnds/lib/libfilesystem.a(nitrofs.o)
 .bss.accessCounter
                0x02032244        0x4 /opt/devkitpro/libnds/lib/libfat.a(cache.o)
 .bss.currentCopy
                0x02032248       0x5c /opt/devkitpro/libnds/lib/libnds9.a(console.o)
                0x02032248                currentCopy
 .bss.OamMemory
                0x020322a4      0x400 /opt/devkitpro/libnds/lib/libnds9.a(sprite.o)
                0x020322a4                OamMemory
 .bss.OamMemorySub
                0x020326a4      0x400 /opt/devkitpro/libnds/lib/libnds9.a(sprite.o)
                0x020326a4                OamMemorySub
 .bss.keys      0x02032aa4        0x2 /opt/devkitpro/libnds/lib/libnds9.a(keys.o)
 .bss.keysold   0x02032aa6        0x2 /opt/devkitpro/libnds/lib/libnds9.a(keys.o)
 .bss.keysrepeat
                0x02032aa8        0x2 /opt/devkitpro/libnds/lib/libnds9.a(keys.o)
 .bss.__dsimode
                0x02032aaa        0x1 /opt/devkitpro/libnds/lib/libnds9.a(initSystem.o)
                0x02032aaa                __dsimode
 *fill*         0x02032aab        0x1 
 .bss.punixTime
                0x02032aac        0x4 /opt/devkitpro/libnds/lib/libnds9.a(initSystem.o)
                0x02032aac                punixTime
 .bss.fifo_address_data
                0x02032ab0       0x40 /opt/devkitpro/libnds/lib/libnds9.a(fifosystem.o)
                0x02032ab0                fifo_address_data
 .bss.fifo_address_func
                0x02032af0       0x40 /opt/devkitpro/libnds/lib/libnds9.a(fifosystem.o)
                0x02032af0                fifo_address_func
 .bss.fifo_address_queue
                0x02032b30       0x40 /opt/devkitpro/libnds/lib/libnds9.a(fifosystem.o)
                0x02032b30                fifo_address_queue
 .bss.fifo_buffer
                0x02032b70      0x800 /opt/devkitpro/libnds/lib/libnds9.a(fifosystem.o)
                0x02032b70                fifo_buffer
 .bss.fifo_data_queue
                0x02033370       0x40 /opt/devkitpro/libnds/lib/libnds9.a(fifosystem.o)
                0x02033370                fifo_data_queue
 .bss.fifo_datamsg_data
                0x020333b0       0x40 /opt/devkitpro/libnds/lib/libnds9.a(fifosystem.o)
                0x020333b0                fifo_datamsg_data
 .bss.fifo_datamsg_func
                0x020333f0       0x40 /opt/devkitpro/libnds/lib/libnds9.a(fifosystem.o)
                0x020333f0                fifo_datamsg_func
 .bss.fifo_value32_data
                0x02033430       0x40 /opt/devkitpro/libnds/lib/libnds9.a(fifosystem.o)
                0x02033430                fifo_value32_data
 .bss.fifo_value32_func
                0x02033470       0x40 /opt/devkitpro/libnds/lib/libnds9.a(fifosystem.o)
                0x02033470                fifo_value32_func
 .bss.fifo_value32_queue
                0x020334b0       0x40 /opt/devkitpro/libnds/lib/libnds9.a(fifosystem.o)
                0x020334b0                fifo_value32_queue
 .bss.processing
                0x020334f0        0x4 /opt/devkitpro/libnds/lib/libnds9.a(fifosystem.o)
                0x020334f0                processing
 .bss.bgIsTextLut
                0x020334f4        0x8 /opt/devkitpro/libnds/lib/libnds9.a(background.o)
                0x020334f4                bgIsTextLut
 .bss.bgState   0x020334fc      0x140 /opt/devkitpro/libnds/lib/libnds9.a(background.o)
                0x020334fc                bgState
 .bss.SDcallback
                0x0203363c        0x4 /opt/devkitpro/libnds/lib/libnds9.a(system.o)
 .bss.__malloc_current_mallinfo
                0x02033640       0x28 /opt/devkitpro/devkitARM/bin/../lib/gcc/arm-none-eabi/12.2.0/../../../../arm-none-eabi/lib/libg.a(libc_a-mallocr.o)
                0x02033640                __malloc_current_mallinfo
 .bss.__malloc_max_total_mem
                0x02033668        0x4 /opt/devkitpro/devkitARM/bin/../lib/gcc/arm-none-eabi/12.2.0/../../../../arm-none-eabi/lib/libg.a(libc_a-mallocr.o)
                0x02033668                __malloc_max_total_mem
 .bss.__malloc_max_sbrked_mem
                0x0203366c        0x4 /opt/devkitpro/devkitARM/bin/../lib/gcc/arm-none-eabi/12.2.0/../../../../arm-none-eabi/lib/libg.a(libc_a-mallocr.o)
                0x0203366c                __malloc_max_sbrked_mem
 .bss.__malloc_top_pad
                0x02033670        0x4 /opt/devkitpro/devkitARM/bin/../lib/gcc/arm-none-eabi/12.2.0/../../../../arm-none-eabi/lib/libg.a(libc_a-mallocr.o)
                0x02033670                __malloc_top_pad
 .bss.__malloc_recursive_mutex
                0x02033674        0xc /opt/devkitpro/devkitARM/bin/../lib/gcc/arm-none-eabi/12.2.0/../../../../arm-none-eabi/lib/libg.a(libc_a-mlock.o)
 .bss.__sfp_recursive_mutex
                0x02033680        0xc /opt/devkitpro/devkitARM/bin/../lib/gcc/arm-none-eabi/12.2.0/../../../../arm-none-eabi/lib/libg.a(libc_a-findfp.o)
 *fill*         0x0203368c        0x4 
 .bss.__sf      0x02033690      0x168 /opt/devkitpro/devkitARM/bin/../lib/gcc/arm-none-eabi/12.2.0/../../../../arm-none-eabi/lib/libg.a(libc_a-findfp.o)
                0x02033690                __sf
 .bss.__stdio_exit_handler
                0x020337f8        0x4 /opt/devkitpro/devkitARM/bin/../lib/gcc/arm-none-eabi/12.2.0/../../../../arm-none-eabi/lib/libg.a(libc_a-findfp.o)
                0x020337f8                __stdio_exit_handler
 .bss.__tz_mutex
                0x020337fc        0x4 /opt/devkitpro/devkitARM/bin/../lib/gcc/arm-none-eabi/12.2.0/../../../../arm-none-eabi/lib/libg.a(libc_a-tzlock.o)
 .bss.prev_tzenv
                0x02033800        0x4 /opt/devkitpro/devkitARM/bin/../lib/gcc/arm-none-eabi/12.2.0/../../../../arm-none-eabi/lib/libg.a(libc_a-tzset_r.o)
 .bss.__tzname_dst
                0x02033804        0xc /opt/devkitpro/devkitARM/bin/../lib/gcc/arm-none-eabi/12.2.0/../../../../arm-none-eabi/lib/libg.a(libc_a-tzset_r.o)
 .bss.__tzname_std
                0x02033810        0xc /opt/devkitpro/devkitARM/bin/../lib/gcc/arm-none-eabi/12.2.0/../../../../arm-none-eabi/lib/libg.a(libc_a-tzset_r.o)
 .bss._timezone
                0x0203381c        0x4 /opt/devkitpro/devkitARM/bin/../lib/gcc/arm-none-eabi/12.2.0/../../../../arm-none-eabi/lib/libg.a(libc_a-tzvars.o)
                0x0203381c                _timezone
 .bss._daylight
                0x02033820        0x4 /opt/devkitpro/devkitARM/bin/../lib/gcc/arm-none-eabi/12.2.0/../../../../arm-none-eabi/lib/libg.a(libc_a-tzvars.o)
                0x02033820                _daylight
 .bss.initial_env
                0x02033824        0x4 /opt/devkitpro/devkitARM/bin/../lib/gcc/arm-none-eabi/12.2.0/../../../../arm-none-eabi/lib/libg.a(libc_a-environ.o)
 .bss.__env_recursive_mutex
                0x02033828        0xc /opt/devkitpro/devkitARM/bin/../lib/gcc/arm-none-eabi/12.2.0/../../../../arm-none-eabi/lib/libg.a(libc_a-envlock.o)
 .bss.temp_cwd  0x02033834      0x400 /opt/devkitpro/devkitARM/bin/../lib/gcc/arm-none-eabi/12.2.0/../../../../arm-none-eabi/lib/libsysbase.a(libsysbase_libsysbase_a-chdir.o)
 .bss.__hndl_lock
                0x02033c34        0x4 /opt/devkitpro/devkitARM/bin/../lib/gcc/arm-none-eabi/12.2.0/../../../../arm-none-eabi/lib/libsysbase.a(libsysbase_libsysbase_a-handle_manager.o)
 .bss.fake_heap_start
                0x02033c38        0x4 /opt/devkitpro/devkitARM/bin/../lib/gcc/arm-none-eabi/12.2.0/../../../../arm-none-eabi/lib/libsysbase.a(libsysbase_libsysbase_a-malloc_vars.o)
                0x02033c38                fake_heap_start
 .bss.fake_heap_end
                0x02033c3c        0x4 /opt/devkitpro/devkitARM/bin/../lib/gcc/arm-none-eabi/12.2.0/../../../../arm-none-eabi/lib/libsysbase.a(libsysbase_libsysbase_a-malloc_vars.o)
                0x02033c3c                fake_heap_end
 .bss.heap_start.0
                0x02033c40        0x4 /opt/devkitpro/devkitARM/bin/../lib/gcc/arm-none-eabi/12.2.0/../../../../arm-none-eabi/lib/libsysbase.a(libsysbase_libsysbase_a-sbrk.o)
 *(EXCLUDE_FILE(*.twl*) COMMON)
                0x02033c44                        . = ALIGN (0x4)
                0x02033c44                        __bss_end__ = ABSOLUTE (.)
                0x02033c44                        __end__ = ABSOLUTE (.)

.twl            0x02033c44      0x15c load address 0x02400000
                0x02400000                        __arm9i_lma__ = LOADADDR (.twl)
                0x02033c44                        __arm9i_start__ = ABSOLUTE (.)
 *(.twl)
 *.twl*(.text .stub .text.* .gnu.linkonce.t.*)
 .text.sdio_ClearStatus
                0x02033c44        0x4 /opt/devkitpro/libnds/lib/libnds9.a(sd.twl.o)
                0x02033c44                sdio_ClearStatus
 .text.sdio_Startup
                0x02033c48       0x50 /opt/devkitpro/libnds/lib/libnds9.a(sd.twl.o)
                0x02033c48                sdio_Startup
 .text.sdio_Shutdown
                0x02033c98        0x4 /opt/devkitpro/libnds/lib/libnds9.a(sd.twl.o)
                0x02033c98                sdio_Shutdown
 .text.sdio_IsInserted
                0x02033c9c       0x30 /opt/devkitpro/libnds/lib/libnds9.a(sd.twl.o)
                0x02033c9c                sdio_IsInserted
 .text.sdio_ReadSectors
                0x02033ccc       0x50 /opt/devkitpro/libnds/lib/libnds9.a(sd.twl.o)
                0x02033ccc                sdio_ReadSectors
 .text.sdio_WriteSectors
                0x02033d1c       0x50 /opt/devkitpro/libnds/lib/libnds9.a(sd.twl.o)
                0x02033d1c                sdio_WriteSectors
 *fill*         0x02033d6c        0x4 
 .text.sdio_WriteSectors.__stub
                0x02033d70       0x10 linker stubs
 *.twl*(.rodata)
 *.twl*(.roda)
 *.twl*(.rodata.*)
 .rodata.__io_dsisd
                0x02033d80       0x20 /opt/devkitpro/libnds/lib/libnds9.a(sd.twl.o)
                0x02033d80                __io_dsisd
 *.twl*(.data)
 *.twl*(.data.*)
 *.twl*(.gnu.linkonce.d*)
                0x02033da0                        __arm9i_end__ = ABSOLUTE (.)

.rel.dyn        0x02033da0        0x0 load address 0x0240015c
 .rel.iplt      0x02033da0        0x0 /opt/devkitpro/devkitARM/bin/../lib/gcc/arm-none-eabi/12.2.0/../../../../arm-none-eabi/lib/ds_arm9_crt0.o

.twl_bss        0x02033da0        0x0
                0x02033da0                        __twl_bss_start__ = ABSOLUTE (.)
 *(.twl_bss)
 *.twl*(.dynbss)
 *.twl*(.gnu.linkonce.b*)
 *.twl*(.bss*)
 *.twl*(COMMON)
                0x02033da0                        . = ALIGN (0x4)
                0x02033da0                        __twl_bss_end__ = ABSOLUTE (.)
                0x02033da0                        __twl_end__ = ABSOLUTE (.)

.stab
 *(.stab)

.stabstr
 *(.stabstr)

.stab.excl
 *(.stab.excl)

.stab.exclstr
 *(.stab.exclstr)

.stab.index
 *(.stab.index)

.stab.indexstr
 *(.stab.indexstr)

.comment        0x00000000       0x69
 *(.comment)
 .comment       0x00000000       0x23 /opt/devkitpro/devkitARM/bin/../lib/gcc/arm-none-eabi/12.2.0/crtbegin.o
                                 0x24 (size before relaxing)
 .comment       0x00000023       0x24 main.o
 .comment       0x00000023       0x24 /opt/devkitpro/nflib/lib/libnflib.a(nf_2d.o)
 .comment       0x00000023       0x24 /opt/devkitpro/nflib/lib/libnflib.a(nf_basic.o)
 .comment       0x00000023       0x24 /opt/devkitpro/nflib/lib/libnflib.a(nf_sprite256.o)
 .comment       0x00000023       0x24 /opt/devkitpro/nflib/lib/libnflib.a(nf_tiledbg.o)
 .comment       0x00000023       0x23 /opt/devkitpro/libnds/lib/libfilesystem.a(nitrofs.o)
                                 0x24 (size before relaxing)
 .comment       0x00000046       0x24 /opt/devkitpro/libnds/lib/libfat.a(libfat.o)
 .comment       0x00000046       0x24 /opt/devkitpro/libnds/lib/libfat.a(disc.o)
 .comment       0x00000046       0x24 /opt/devkitpro/libnds/lib/libfat.a(fatfile.o)
 .comment       0x00000046       0x24 /opt/devkitpro/libnds/lib/libfat.a(cache.o)
 .comment       0x00000046       0x24 /opt/devkitpro/libnds/lib/libfat.a(fatdir.o)
 .comment       0x00000046       0x24 /opt/devkitpro/libnds/lib/libfat.a(directory.o)
 .comment       0x00000046       0x24 /opt/devkitpro/libnds/lib/libfat.a(partition.o)
 .comment       0x00000046       0x24 /opt/devkitpro/libnds/lib/libfat.a(lock.o)
 .comment       0x00000046       0x24 /opt/devkitpro/libnds/lib/libfat.a(filetime.o)
 .comment       0x00000046       0x24 /opt/devkitpro/libnds/lib/libfat.a(file_allocation_table.o)
 .comment       0x00000046       0x23 /opt/devkitpro/libnds/lib/libnds9.a(video.o)
                                 0x24 (size before relaxing)
 .comment       0x00000069       0x24 /opt/devkitpro/libnds/lib/libnds9.a(console.o)
 .comment       0x00000069       0x24 /opt/devkitpro/libnds/lib/libnds9.a(sprite.o)
 .comment       0x00000069       0x24 /opt/devkitpro/libnds/lib/libnds9.a(keys.o)
 .comment       0x00000069       0x24 /opt/devkitpro/libnds/lib/libnds9.a(dldi.o)
 .comment       0x00000069       0x24 /opt/devkitpro/libnds/lib/libnds9.a(initSystem.o)
 .comment       0x00000069       0x24 /opt/devkitpro/libnds/lib/libnds9.a(securearea.o)
 .comment       0x00000069       0x24 /opt/devkitpro/libnds/lib/libnds9.a(interrupts.o)
 .comment       0x00000069       0x24 /opt/devkitpro/libnds/lib/libnds9.a(libnds_exit.arm.o)
 .comment       0x00000069       0x24 /opt/devkitpro/libnds/lib/libnds9.a(card.o)
 .comment       0x00000069       0x24 /opt/devkitpro/libnds/lib/libnds9.a(fifosystem.o)
 .comment       0x00000069       0x24 /opt/devkitpro/libnds/lib/libnds9.a(background.o)
 .comment       0x00000069       0x24 /opt/devkitpro/libnds/lib/libnds9.a(trig.o)
 .comment       0x00000069       0x24 /opt/devkitpro/libnds/lib/libnds9.a(system.o)
 .comment       0x00000069       0x24 /opt/devkitpro/libnds/lib/libnds9.a(sd.twl.o)
 .comment       0x00000069       0x24 /opt/devkitpro/devkitARM/bin/../lib/gcc/arm-none-eabi/12.2.0/libgcc.a(_muldi3.o)
 .comment       0x00000069       0x24 /opt/devkitpro/devkitARM/bin/../lib/gcc/arm-none-eabi/12.2.0/libgcc.a(_udivmoddi4.o)
 .comment       0x00000069       0x24 /opt/devkitpro/devkitARM/bin/../lib/gcc/arm-none-eabi/12.2.0/../../../../arm-none-eabi/lib/libg.a(libc_a-calloc.o)
 .comment       0x00000069       0x24 /opt/devkitpro/devkitARM/bin/../lib/gcc/arm-none-eabi/12.2.0/../../../../arm-none-eabi/lib/libg.a(libc_a-callocr.o)
 .comment       0x00000069       0x24 /opt/devkitpro/devkitARM/bin/../lib/gcc/arm-none-eabi/12.2.0/../../../../arm-none-eabi/lib/libg.a(libc_a-malloc.o)
 .comment       0x00000069       0x24 /opt/devkitpro/devkitARM/bin/../lib/gcc/arm-none-eabi/12.2.0/../../../../arm-none-eabi/lib/libg.a(libc_a-mallocr.o)
 .comment       0x00000069       0x24 /opt/devkitpro/devkitARM/bin/../lib/gcc/arm-none-eabi/12.2.0/../../../../arm-none-eabi/lib/libg.a(libc_a-mlock.o)
 .comment       0x00000069       0x24 /opt/devkitpro/devkitARM/bin/../lib/gcc/arm-none-eabi/12.2.0/../../../../arm-none-eabi/lib/libg.a(libc_a-realloc.o)
 .comment       0x00000069       0x24 /opt/devkitpro/devkitARM/bin/../lib/gcc/arm-none-eabi/12.2.0/../../../../arm-none-eabi/lib/libg.a(libc_a-reallocr.o)
 .comment       0x00000069       0x24 /opt/devkitpro/devkitARM/bin/../lib/gcc/arm-none-eabi/12.2.0/../../../../arm-none-eabi/lib/libg.a(libc_a-mbrtowc.o)
 .comment       0x00000069       0x24 /opt/devkitpro/devkitARM/bin/../lib/gcc/arm-none-eabi/12.2.0/../../../../arm-none-eabi/lib/libg.a(libc_a-mbsrtowcs.o)
 .comment       0x00000069       0x24 /opt/devkitpro/devkitARM/bin/../lib/gcc/arm-none-eabi/12.2.0/../../../../arm-none-eabi/lib/libg.a(libc_a-wcrtomb.o)
 .comment       0x00000069       0x24 /opt/devkitpro/devkitARM/bin/../lib/gcc/arm-none-eabi/12.2.0/../../../../arm-none-eabi/lib/libg.a(libc_a-wctob.o)
 .comment       0x00000069       0x24 /opt/devkitpro/devkitARM/bin/../lib/gcc/arm-none-eabi/12.2.0/../../../../arm-none-eabi/lib/libg.a(libc_a-ctype_.o)
 .comment       0x00000069       0x24 /opt/devkitpro/devkitARM/bin/../lib/gcc/arm-none-eabi/12.2.0/../../../../arm-none-eabi/lib/libg.a(libc_a-towlower.o)
 .comment       0x00000069       0x24 /opt/devkitpro/devkitARM/bin/../lib/gcc/arm-none-eabi/12.2.0/../../../../arm-none-eabi/lib/libg.a(libc_a-towupper.o)
 .comment       0x00000069       0x24 /opt/devkitpro/devkitARM/bin/../lib/gcc/arm-none-eabi/12.2.0/../../../../arm-none-eabi/lib/libg.a(libc_a-iprintf.o)
 .comment       0x00000069       0x24 /opt/devkitpro/devkitARM/bin/../lib/gcc/arm-none-eabi/12.2.0/../../../../arm-none-eabi/lib/libg.a(libc_a-siscanf.o)
 .comment       0x00000069       0x24 /opt/devkitpro/devkitARM/bin/../lib/gcc/arm-none-eabi/12.2.0/../../../../arm-none-eabi/lib/libg.a(libc_a-svfiscanf.o)
 .comment       0x00000069       0x24 /opt/devkitpro/devkitARM/bin/../lib/gcc/arm-none-eabi/12.2.0/../../../../arm-none-eabi/lib/libg.a(libc_a-vfiprintf.o)
 .comment       0x00000069       0x24 /opt/devkitpro/devkitARM/bin/../lib/gcc/arm-none-eabi/12.2.0/../../../../arm-none-eabi/lib/libg.a(libc_a-fclose.o)
 .comment       0x00000069       0x24 /opt/devkitpro/devkitARM/bin/../lib/gcc/arm-none-eabi/12.2.0/../../../../arm-none-eabi/lib/libg.a(libc_a-fflush.o)
 .comment       0x00000069       0x24 /opt/devkitpro/devkitARM/bin/../lib/gcc/arm-none-eabi/12.2.0/../../../../arm-none-eabi/lib/libg.a(libc_a-findfp.o)
 .comment       0x00000069       0x24 /opt/devkitpro/devkitARM/bin/../lib/gcc/arm-none-eabi/12.2.0/../../../../arm-none-eabi/lib/libg.a(libc_a-fopen.o)
 .comment       0x00000069       0x24 /opt/devkitpro/devkitARM/bin/../lib/gcc/arm-none-eabi/12.2.0/../../../../arm-none-eabi/lib/libg.a(libc_a-fread.o)
 .comment       0x00000069       0x24 /opt/devkitpro/devkitARM/bin/../lib/gcc/arm-none-eabi/12.2.0/../../../../arm-none-eabi/lib/libg.a(libc_a-fseek.o)
 .comment       0x00000069       0x24 /opt/devkitpro/devkitARM/bin/../lib/gcc/arm-none-eabi/12.2.0/../../../../arm-none-eabi/lib/libg.a(libc_a-ftell.o)
 .comment       0x00000069       0x24 /opt/devkitpro/devkitARM/bin/../lib/gcc/arm-none-eabi/12.2.0/../../../../arm-none-eabi/lib/libg.a(libc_a-fvwrite.o)
 .comment       0x00000069       0x24 /opt/devkitpro/devkitARM/bin/../lib/gcc/arm-none-eabi/12.2.0/../../../../arm-none-eabi/lib/libg.a(libc_a-fwalk.o)
 .comment       0x00000069       0x24 /opt/devkitpro/devkitARM/bin/../lib/gcc/arm-none-eabi/12.2.0/../../../../arm-none-eabi/lib/libg.a(libc_a-makebuf.o)
 .comment       0x00000069       0x24 /opt/devkitpro/devkitARM/bin/../lib/gcc/arm-none-eabi/12.2.0/../../../../arm-none-eabi/lib/libg.a(libc_a-puts.o)
 .comment       0x00000069       0x24 /opt/devkitpro/devkitARM/bin/../lib/gcc/arm-none-eabi/12.2.0/../../../../arm-none-eabi/lib/libg.a(libc_a-refill.o)
 .comment       0x00000069       0x24 /opt/devkitpro/devkitARM/bin/../lib/gcc/arm-none-eabi/12.2.0/../../../../arm-none-eabi/lib/libg.a(libc_a-rewind.o)
 .comment       0x00000069       0x24 /opt/devkitpro/devkitARM/bin/../lib/gcc/arm-none-eabi/12.2.0/../../../../arm-none-eabi/lib/libg.a(libc_a-sccl.o)
 .comment       0x00000069       0x24 /opt/devkitpro/devkitARM/bin/../lib/gcc/arm-none-eabi/12.2.0/../../../../arm-none-eabi/lib/libg.a(libc_a-setvbuf.o)
 .comment       0x00000069       0x24 /opt/devkitpro/devkitARM/bin/../lib/gcc/arm-none-eabi/12.2.0/../../../../arm-none-eabi/lib/libg.a(libc_a-snprintf.o)
 .comment       0x00000069       0x24 /opt/devkitpro/devkitARM/bin/../lib/gcc/arm-none-eabi/12.2.0/../../../../arm-none-eabi/lib/libg.a(libc_a-stdio.o)
 .comment       0x00000069       0x24 /opt/devkitpro/devkitARM/bin/../lib/gcc/arm-none-eabi/12.2.0/../../../../arm-none-eabi/lib/libg.a(libc_a-ungetc.o)
 .comment       0x00000069       0x24 /opt/devkitpro/devkitARM/bin/../lib/gcc/arm-none-eabi/12.2.0/../../../../arm-none-eabi/lib/libg.a(libc_a-wsetup.o)
 .comment       0x00000069       0x24 /opt/devkitpro/devkitARM/bin/../lib/gcc/arm-none-eabi/12.2.0/../../../../arm-none-eabi/lib/libg.a(libc_a-fseeko.o)
 .comment       0x00000069       0x24 /opt/devkitpro/devkitARM/bin/../lib/gcc/arm-none-eabi/12.2.0/../../../../arm-none-eabi/lib/libg.a(libc_a-ftello.o)
 .comment       0x00000069       0x24 /opt/devkitpro/devkitARM/bin/../lib/gcc/arm-none-eabi/12.2.0/../../../../arm-none-eabi/lib/libg.a(libc_a-memcmp.o)
 .comment       0x00000069       0x24 /opt/devkitpro/devkitARM/bin/../lib/gcc/arm-none-eabi/12.2.0/../../../../arm-none-eabi/lib/libg.a(libc_a-memmove.o)
 .comment       0x00000069       0x24 /opt/devkitpro/devkitARM/bin/../lib/gcc/arm-none-eabi/12.2.0/../../../../arm-none-eabi/lib/libg.a(libc_a-memset.o)
 .comment       0x00000069       0x24 /opt/devkitpro/devkitARM/bin/../lib/gcc/arm-none-eabi/12.2.0/../../../../arm-none-eabi/lib/libg.a(libc_a-strcasecmp.o)
 .comment       0x00000069       0x24 /opt/devkitpro/devkitARM/bin/../lib/gcc/arm-none-eabi/12.2.0/../../../../arm-none-eabi/lib/libg.a(libc_a-strchr.o)
 .comment       0x00000069       0x24 /opt/devkitpro/devkitARM/bin/../lib/gcc/arm-none-eabi/12.2.0/../../../../arm-none-eabi/lib/libg.a(libc_a-strdup.o)
 .comment       0x00000069       0x24 /opt/devkitpro/devkitARM/bin/../lib/gcc/arm-none-eabi/12.2.0/../../../../arm-none-eabi/lib/libg.a(libc_a-strdup_r.o)
 .comment       0x00000069       0x24 /opt/devkitpro/devkitARM/bin/../lib/gcc/arm-none-eabi/12.2.0/../../../../arm-none-eabi/lib/libg.a(libc_a-strlen.o)
 .comment       0x00000069       0x24 /opt/devkitpro/devkitARM/bin/../lib/gcc/arm-none-eabi/12.2.0/../../../../arm-none-eabi/lib/libg.a(libc_a-strncasecmp.o)
 .comment       0x00000069       0x24 /opt/devkitpro/devkitARM/bin/../lib/gcc/arm-none-eabi/12.2.0/../../../../arm-none-eabi/lib/libg.a(libc_a-strncmp.o)
 .comment       0x00000069       0x24 /opt/devkitpro/devkitARM/bin/../lib/gcc/arm-none-eabi/12.2.0/../../../../arm-none-eabi/lib/libg.a(libc_a-strncpy.o)
 .comment       0x00000069       0x24 /opt/devkitpro/devkitARM/bin/../lib/gcc/arm-none-eabi/12.2.0/../../../../arm-none-eabi/lib/libg.a(libc_a-strnlen.o)
 .comment       0x00000069       0x24 /opt/devkitpro/devkitARM/bin/../lib/gcc/arm-none-eabi/12.2.0/../../../../arm-none-eabi/lib/libg.a(libc_a-strpbrk.o)
 .comment       0x00000069       0x24 /opt/devkitpro/devkitARM/bin/../lib/gcc/arm-none-eabi/12.2.0/../../../../arm-none-eabi/lib/libg.a(libc_a-strrchr.o)
 .comment       0x00000069       0x24 /opt/devkitpro/devkitARM/bin/../lib/gcc/arm-none-eabi/12.2.0/../../../../arm-none-eabi/lib/libg.a(libc_a-stpcpy.o)
 .comment       0x00000069       0x24 /opt/devkitpro/devkitARM/bin/../lib/gcc/arm-none-eabi/12.2.0/../../../../arm-none-eabi/lib/libg.a(libc_a-lcltime_r.o)
 .comment       0x00000069       0x24 /opt/devkitpro/devkitARM/bin/../lib/gcc/arm-none-eabi/12.2.0/../../../../arm-none-eabi/lib/libg.a(libc_a-mktime.o)
 .comment       0x00000069       0x24 /opt/devkitpro/devkitARM/bin/../lib/gcc/arm-none-eabi/12.2.0/../../../../arm-none-eabi/lib/libg.a(libc_a-month_lengths.o)
 .comment       0x00000069       0x24 /opt/devkitpro/devkitARM/bin/../lib/gcc/arm-none-eabi/12.2.0/../../../../arm-none-eabi/lib/libg.a(libc_a-time.o)
 .comment       0x00000069       0x24 /opt/devkitpro/devkitARM/bin/../lib/gcc/arm-none-eabi/12.2.0/../../../../arm-none-eabi/lib/libg.a(libc_a-tzcalc_limits.o)
 .comment       0x00000069       0x24 /opt/devkitpro/devkitARM/bin/../lib/gcc/arm-none-eabi/12.2.0/../../../../arm-none-eabi/lib/libg.a(libc_a-tzlock.o)
 .comment       0x00000069       0x24 /opt/devkitpro/devkitARM/bin/../lib/gcc/arm-none-eabi/12.2.0/../../../../arm-none-eabi/lib/libg.a(libc_a-tzset.o)
 .comment       0x00000069       0x24 /opt/devkitpro/devkitARM/bin/../lib/gcc/arm-none-eabi/12.2.0/../../../../arm-none-eabi/lib/libg.a(libc_a-tzset_r.o)
 .comment       0x00000069       0x24 /opt/devkitpro/devkitARM/bin/../lib/gcc/arm-none-eabi/12.2.0/../../../../arm-none-eabi/lib/libg.a(libc_a-tzvars.o)
 .comment       0x00000069       0x24 /opt/devkitpro/devkitARM/bin/../lib/gcc/arm-none-eabi/12.2.0/../../../../arm-none-eabi/lib/libg.a(libc_a-locale.o)
 .comment       0x00000069       0x24 /opt/devkitpro/devkitARM/bin/../lib/gcc/arm-none-eabi/12.2.0/../../../../arm-none-eabi/lib/libg.a(libc_a-localeconv.o)
 .comment       0x00000069       0x24 /opt/devkitpro/devkitARM/bin/../lib/gcc/arm-none-eabi/12.2.0/../../../../arm-none-eabi/lib/libg.a(libc_a-impure.o)
 .comment       0x00000069       0x24 /opt/devkitpro/devkitARM/bin/../lib/gcc/arm-none-eabi/12.2.0/../../../../arm-none-eabi/lib/libg.a(libc_a-errno.o)
 .comment       0x00000069       0x24 /opt/devkitpro/devkitARM/bin/../lib/gcc/arm-none-eabi/12.2.0/../../../../arm-none-eabi/lib/libg.a(libc_a-init.o)
 .comment       0x00000069       0x24 /opt/devkitpro/devkitARM/bin/../lib/gcc/arm-none-eabi/12.2.0/../../../../arm-none-eabi/lib/libg.a(libc_a-syslseek.o)
 .comment       0x00000069       0x24 /opt/devkitpro/devkitARM/bin/../lib/gcc/arm-none-eabi/12.2.0/../../../../arm-none-eabi/lib/libg.a(libc_a-sysopen.o)
 .comment       0x00000069       0x24 /opt/devkitpro/devkitARM/bin/../lib/gcc/arm-none-eabi/12.2.0/../../../../arm-none-eabi/lib/libg.a(libc_a-sysread.o)
 .comment       0x00000069       0x24 /opt/devkitpro/devkitARM/bin/../lib/gcc/arm-none-eabi/12.2.0/../../../../arm-none-eabi/lib/libg.a(libc_a-access.o)
 .comment       0x00000069       0x24 /opt/devkitpro/devkitARM/bin/../lib/gcc/arm-none-eabi/12.2.0/../../../../arm-none-eabi/lib/libg.a(libc_a-strcpy.o)
 .comment       0x00000069       0x24 /opt/devkitpro/devkitARM/bin/../lib/gcc/arm-none-eabi/12.2.0/../../../../arm-none-eabi/lib/libg.a(libc_a-memchr-stub.o)
 .comment       0x00000069       0x24 /opt/devkitpro/devkitARM/bin/../lib/gcc/arm-none-eabi/12.2.0/../../../../arm-none-eabi/lib/libg.a(libc_a-memcpy-stub.o)
 .comment       0x00000069       0x24 /opt/devkitpro/devkitARM/bin/../lib/gcc/arm-none-eabi/12.2.0/../../../../arm-none-eabi/lib/libg.a(libc_a-div.o)
 .comment       0x00000069       0x24 /opt/devkitpro/devkitARM/bin/../lib/gcc/arm-none-eabi/12.2.0/../../../../arm-none-eabi/lib/libg.a(libc_a-freer.o)
 .comment       0x00000069       0x24 /opt/devkitpro/devkitARM/bin/../lib/gcc/arm-none-eabi/12.2.0/../../../../arm-none-eabi/lib/libg.a(libc_a-getenv_r.o)
 .comment       0x00000069       0x24 /opt/devkitpro/devkitARM/bin/../lib/gcc/arm-none-eabi/12.2.0/../../../../arm-none-eabi/lib/libg.a(libc_a-mbtowc_r.o)
 .comment       0x00000069       0x24 /opt/devkitpro/devkitARM/bin/../lib/gcc/arm-none-eabi/12.2.0/../../../../arm-none-eabi/lib/libg.a(libc_a-strtol.o)
 .comment       0x00000069       0x24 /opt/devkitpro/devkitARM/bin/../lib/gcc/arm-none-eabi/12.2.0/../../../../arm-none-eabi/lib/libg.a(libc_a-strtoul.o)
 .comment       0x00000069       0x24 /opt/devkitpro/devkitARM/bin/../lib/gcc/arm-none-eabi/12.2.0/../../../../arm-none-eabi/lib/libg.a(libc_a-wctomb_r.o)
 .comment       0x00000069       0x24 /opt/devkitpro/devkitARM/bin/../lib/gcc/arm-none-eabi/12.2.0/../../../../arm-none-eabi/lib/libg.a(libc_a-strtoll.o)
 .comment       0x00000069       0x24 /opt/devkitpro/devkitARM/bin/../lib/gcc/arm-none-eabi/12.2.0/../../../../arm-none-eabi/lib/libg.a(libc_a-strtoull.o)
 .comment       0x00000069       0x24 /opt/devkitpro/devkitARM/bin/../lib/gcc/arm-none-eabi/12.2.0/../../../../arm-none-eabi/lib/libg.a(libc_a-malign.o)
 .comment       0x00000069       0x24 /opt/devkitpro/devkitARM/bin/../lib/gcc/arm-none-eabi/12.2.0/../../../../arm-none-eabi/lib/libg.a(libc_a-malignr.o)
 .comment       0x00000069       0x24 /opt/devkitpro/devkitARM/bin/../lib/gcc/arm-none-eabi/12.2.0/../../../../arm-none-eabi/lib/libg.a(libc_a-mbsnrtowcs.o)
 .comment       0x00000069       0x24 /opt/devkitpro/devkitARM/bin/../lib/gcc/arm-none-eabi/12.2.0/../../../../arm-none-eabi/lib/libg.a(libc_a-wcsrtombs.o)
 .comment       0x00000069       0x24 /opt/devkitpro/devkitARM/bin/../lib/gcc/arm-none-eabi/12.2.0/../../../../arm-none-eabi/lib/libg.a(libc_a-iswspace.o)
 .comment       0x00000069       0x24 /opt/devkitpro/devkitARM/bin/../lib/gcc/arm-none-eabi/12.2.0/../../../../arm-none-eabi/lib/libg.a(libc_a-iswspace_l.o)
 .comment       0x00000069       0x24 /opt/devkitpro/devkitARM/bin/../lib/gcc/arm-none-eabi/12.2.0/../../../../arm-none-eabi/lib/libg.a(libc_a-towctrans.o)
 .comment       0x00000069       0x24 /opt/devkitpro/devkitARM/bin/../lib/gcc/arm-none-eabi/12.2.0/../../../../arm-none-eabi/lib/libg.a(libc_a-towctrans_l.o)
 .comment       0x00000069       0x24 /opt/devkitpro/devkitARM/bin/../lib/gcc/arm-none-eabi/12.2.0/../../../../arm-none-eabi/lib/libg.a(libc_a-svfiprintf.o)
 .comment       0x00000069       0x24 /opt/devkitpro/devkitARM/bin/../lib/gcc/arm-none-eabi/12.2.0/../../../../arm-none-eabi/lib/libg.a(libc_a-svfprintf.o)
 .comment       0x00000069       0x24 /opt/devkitpro/devkitARM/bin/../lib/gcc/arm-none-eabi/12.2.0/../../../../arm-none-eabi/lib/libg.a(libc_a-flags.o)
 .comment       0x00000069       0x24 /opt/devkitpro/devkitARM/bin/../lib/gcc/arm-none-eabi/12.2.0/../../../../arm-none-eabi/lib/libg.a(libc_a-gettzinfo.o)
 .comment       0x00000069       0x24 /opt/devkitpro/devkitARM/bin/../lib/gcc/arm-none-eabi/12.2.0/../../../../arm-none-eabi/lib/libg.a(libc_a-gmtime_r.o)
 .comment       0x00000069       0x24 /opt/devkitpro/devkitARM/bin/../lib/gcc/arm-none-eabi/12.2.0/../../../../arm-none-eabi/lib/libg.a(libc_a-sysstat.o)
 .comment       0x00000069       0x24 /opt/devkitpro/devkitARM/bin/../lib/gcc/arm-none-eabi/12.2.0/../../../../arm-none-eabi/lib/libg.a(libm_a-s_frexp.o)
 .comment       0x00000069       0x24 /opt/devkitpro/devkitARM/bin/../lib/gcc/arm-none-eabi/12.2.0/../../../../arm-none-eabi/lib/libg.a(libc_a-dtoa.o)
 .comment       0x00000069       0x24 /opt/devkitpro/devkitARM/bin/../lib/gcc/arm-none-eabi/12.2.0/../../../../arm-none-eabi/lib/libg.a(libc_a-environ.o)
 .comment       0x00000069       0x24 /opt/devkitpro/devkitARM/bin/../lib/gcc/arm-none-eabi/12.2.0/../../../../arm-none-eabi/lib/libg.a(libc_a-envlock.o)
 .comment       0x00000069       0x24 /opt/devkitpro/devkitARM/bin/../lib/gcc/arm-none-eabi/12.2.0/../../../../arm-none-eabi/lib/libg.a(libc_a-mprec.o)
 .comment       0x00000069       0x24 /opt/devkitpro/devkitARM/bin/../lib/gcc/arm-none-eabi/12.2.0/../../../../arm-none-eabi/lib/libg.a(libc_a-wcsnrtombs.o)
 .comment       0x00000069       0x24 /opt/devkitpro/devkitARM/bin/../lib/gcc/arm-none-eabi/12.2.0/../../../../arm-none-eabi/lib/libg.a(libc_a-categories.o)
 .comment       0x00000069       0x24 /opt/devkitpro/devkitARM/bin/../lib/gcc/arm-none-eabi/12.2.0/../../../../arm-none-eabi/lib/libg.a(libc_a-assert.o)
 .comment       0x00000069       0x24 /opt/devkitpro/devkitARM/bin/../lib/gcc/arm-none-eabi/12.2.0/../../../../arm-none-eabi/lib/libg.a(libc_a-fiprintf.o)
 .comment       0x00000069       0x24 /opt/devkitpro/devkitARM/bin/../lib/gcc/arm-none-eabi/12.2.0/../../../../arm-none-eabi/lib/libg.a(libc_a-abort.o)
 .comment       0x00000069       0x24 /opt/devkitpro/devkitARM/bin/../lib/gcc/arm-none-eabi/12.2.0/../../../../arm-none-eabi/lib/libg.a(libc_a-signal.o)
 .comment       0x00000069       0x24 /opt/devkitpro/devkitARM/bin/../lib/gcc/arm-none-eabi/12.2.0/../../../../arm-none-eabi/lib/libsysbase.a(libsysbase_libsysbase_a-_exit.o)
 .comment       0x00000069       0x24 /opt/devkitpro/devkitARM/bin/../lib/gcc/arm-none-eabi/12.2.0/../../../../arm-none-eabi/lib/libsysbase.a(libsysbase_libsysbase_a-build_argv.o)
 .comment       0x00000069       0x24 /opt/devkitpro/devkitARM/bin/../lib/gcc/arm-none-eabi/12.2.0/../../../../arm-none-eabi/lib/libsysbase.a(libsysbase_libsysbase_a-chdir.o)
 .comment       0x00000069       0x24 /opt/devkitpro/devkitARM/bin/../lib/gcc/arm-none-eabi/12.2.0/../../../../arm-none-eabi/lib/libsysbase.a(libsysbase_libsysbase_a-fstat.o)
 .comment       0x00000069       0x24 /opt/devkitpro/devkitARM/bin/../lib/gcc/arm-none-eabi/12.2.0/../../../../arm-none-eabi/lib/libsysbase.a(libsysbase_libsysbase_a-getpid.o)
 .comment       0x00000069       0x24 /opt/devkitpro/devkitARM/bin/../lib/gcc/arm-none-eabi/12.2.0/../../../../arm-none-eabi/lib/libsysbase.a(libsysbase_libsysbase_a-getreent.o)
 .comment       0x00000069       0x24 /opt/devkitpro/devkitARM/bin/../lib/gcc/arm-none-eabi/12.2.0/../../../../arm-none-eabi/lib/libsysbase.a(libsysbase_libsysbase_a-gettod.o)
 .comment       0x00000069       0x24 /opt/devkitpro/devkitARM/bin/../lib/gcc/arm-none-eabi/12.2.0/../../../../arm-none-eabi/lib/libsysbase.a(libsysbase_libsysbase_a-handle_manager.o)
 .comment       0x00000069       0x24 /opt/devkitpro/devkitARM/bin/../lib/gcc/arm-none-eabi/12.2.0/../../../../arm-none-eabi/lib/libsysbase.a(libsysbase_libsysbase_a-iosupport.o)
 .comment       0x00000069       0x24 /opt/devkitpro/devkitARM/bin/../lib/gcc/arm-none-eabi/12.2.0/../../../../arm-none-eabi/lib/libsysbase.a(libsysbase_libsysbase_a-isatty.o)
 .comment       0x00000069       0x24 /opt/devkitpro/devkitARM/bin/../lib/gcc/arm-none-eabi/12.2.0/../../../../arm-none-eabi/lib/libsysbase.a(libsysbase_libsysbase_a-kill.o)
 .comment       0x00000069       0x24 /opt/devkitpro/devkitARM/bin/../lib/gcc/arm-none-eabi/12.2.0/../../../../arm-none-eabi/lib/libsysbase.a(libsysbase_libsysbase_a-lseek.o)
 .comment       0x00000069       0x24 /opt/devkitpro/devkitARM/bin/../lib/gcc/arm-none-eabi/12.2.0/../../../../arm-none-eabi/lib/libsysbase.a(libsysbase_libsysbase_a-malloc_vars.o)
 .comment       0x00000069       0x24 /opt/devkitpro/devkitARM/bin/../lib/gcc/arm-none-eabi/12.2.0/../../../../arm-none-eabi/lib/libsysbase.a(libsysbase_libsysbase_a-open.o)
 .comment       0x00000069       0x24 /opt/devkitpro/devkitARM/bin/../lib/gcc/arm-none-eabi/12.2.0/../../../../arm-none-eabi/lib/libsysbase.a(libsysbase_libsysbase_a-read.o)
 .comment       0x00000069       0x24 /opt/devkitpro/devkitARM/bin/../lib/gcc/arm-none-eabi/12.2.0/../../../../arm-none-eabi/lib/libsysbase.a(libsysbase_libsysbase_a-sbrk.o)
 .comment       0x00000069       0x24 /opt/devkitpro/devkitARM/bin/../lib/gcc/arm-none-eabi/12.2.0/../../../../arm-none-eabi/lib/libsysbase.a(libsysbase_libsysbase_a-stat.o)
 .comment       0x00000069       0x24 /opt/devkitpro/devkitARM/bin/../lib/gcc/arm-none-eabi/12.2.0/../../../../arm-none-eabi/lib/libsysbase.a(libsysbase_libsysbase_a-syscall_support.o)
 .comment       0x00000069       0x24 /opt/devkitpro/devkitARM/bin/../lib/gcc/arm-none-eabi/12.2.0/../../../../arm-none-eabi/lib/libsysbase.a(libsysbase_libsysbase_a-write.o)
 .comment       0x00000069       0x24 /opt/devkitpro/devkitARM/bin/../lib/gcc/arm-none-eabi/12.2.0/crtend.o

.ARM.attributes
                0x00000000       0x2d
 .ARM.attributes
                0x00000000       0x21 /opt/devkitpro/devkitARM/bin/../lib/gcc/arm-none-eabi/12.2.0/../../../../arm-none-eabi/lib/ds_arm9_crt0.o
 .ARM.attributes
                0x00000021       0x1c /opt/devkitpro/devkitARM/bin/../lib/gcc/arm-none-eabi/12.2.0/crti.o
 .ARM.attributes
                0x0000003d       0x2a /opt/devkitpro/devkitARM/bin/../lib/gcc/arm-none-eabi/12.2.0/crtbegin.o
 .ARM.attributes
                0x00000067       0x2b main.o
 .ARM.attributes
                0x00000092       0x27 /opt/devkitpro/nflib/lib/libnflib.a(nf_2d.o)
 .ARM.attributes
                0x000000b9       0x27 /opt/devkitpro/nflib/lib/libnflib.a(nf_basic.o)
 .ARM.attributes
                0x000000e0       0x27 /opt/devkitpro/nflib/lib/libnflib.a(nf_sprite256.o)
 .ARM.attributes
                0x00000107       0x27 /opt/devkitpro/nflib/lib/libnflib.a(nf_tiledbg.o)
 .ARM.attributes
                0x0000012e       0x27 /opt/devkitpro/libnds/lib/libfilesystem.a(nitrofs.o)
 .ARM.attributes
                0x00000155       0x27 /opt/devkitpro/libnds/lib/libfat.a(libfat.o)
 .ARM.attributes
                0x0000017c       0x27 /opt/devkitpro/libnds/lib/libfat.a(disc.o)
 .ARM.attributes
                0x000001a3       0x27 /opt/devkitpro/libnds/lib/libfat.a(fatfile.o)
 .ARM.attributes
                0x000001ca       0x27 /opt/devkitpro/libnds/lib/libfat.a(cache.o)
 .ARM.attributes
                0x000001f1       0x27 /opt/devkitpro/libnds/lib/libfat.a(fatdir.o)
 .ARM.attributes
                0x00000218       0x27 /opt/devkitpro/libnds/lib/libfat.a(directory.o)
 .ARM.attributes
                0x0000023f       0x27 /opt/devkitpro/libnds/lib/libfat.a(partition.o)
 .ARM.attributes
                0x00000266       0x27 /opt/devkitpro/libnds/lib/libfat.a(lock.o)
 .ARM.attributes
                0x0000028d       0x27 /opt/devkitpro/libnds/lib/libfat.a(filetime.o)
 .ARM.attributes
                0x000002b4       0x27 /opt/devkitpro/libnds/lib/libfat.a(file_allocation_table.o)
 .ARM.attributes
                0x000002db       0x2b /opt/devkitpro/libnds/lib/libnds9.a(video.o)
 .ARM.attributes
                0x00000306       0x2b /opt/devkitpro/libnds/lib/libnds9.a(console.o)
 .ARM.attributes
                0x00000331       0x2b /opt/devkitpro/libnds/lib/libnds9.a(sprite.o)
 .ARM.attributes
                0x0000035c       0x2b /opt/devkitpro/libnds/lib/libnds9.a(keys.o)
 .ARM.attributes
                0x00000387       0x2b /opt/devkitpro/libnds/lib/libnds9.a(dldi.o)
 .ARM.attributes
                0x000003b2       0x2b /opt/devkitpro/libnds/lib/libnds9.a(initSystem.o)
 .ARM.attributes
                0x000003dd       0x2b /opt/devkitpro/libnds/lib/libnds9.a(securearea.o)
 .ARM.attributes
                0x00000408       0x2b /opt/devkitpro/libnds/lib/libnds9.a(interrupts.o)
 .ARM.attributes
                0x00000433       0x2b /opt/devkitpro/libnds/lib/libnds9.a(libnds_exit.arm.o)
 .ARM.attributes
                0x0000045e       0x2b /opt/devkitpro/libnds/lib/libnds9.a(card.o)
 .ARM.attributes
                0x00000489       0x2b /opt/devkitpro/libnds/lib/libnds9.a(fifosystem.o)
 .ARM.attributes
                0x000004b4       0x1b /opt/devkitpro/libnds/lib/libnds9.a(dcache.o)
 .ARM.attributes
                0x000004cf       0x1b /opt/devkitpro/libnds/lib/libnds9.a(dldi_stub.o)
 .ARM.attributes
                0x000004ea       0x21 /opt/devkitpro/libnds/lib/libnds9.a(mpu_setup.o)
 .ARM.attributes
                0x0000050b       0x21 /opt/devkitpro/libnds/lib/libnds9.a(IntrWait.o)
 .ARM.attributes
                0x0000052c       0x21 /opt/devkitpro/libnds/lib/libnds9.a(cpu_clock.o)
 .ARM.attributes
                0x0000054d       0x1b /opt/devkitpro/libnds/lib/libnds9.a(interruptDispatcher.o)
 .ARM.attributes
                0x00000568       0x1b /opt/devkitpro/libnds/lib/libnds9.a(biosCalls.o)
 .ARM.attributes
                0x00000583       0x21 /opt/devkitpro/libnds/lib/libnds9.a(swiSoftReset.o)
 .ARM.attributes
                0x000005a4       0x14 /opt/devkitpro/libnds/lib/libnds9.a(default_font.bin.o)
 .ARM.attributes
                0x000005b8       0x2b /opt/devkitpro/libnds/lib/libnds9.a(background.o)
 .ARM.attributes
                0x000005e3       0x2b /opt/devkitpro/libnds/lib/libnds9.a(trig.o)
 .ARM.attributes
                0x0000060e       0x2b /opt/devkitpro/libnds/lib/libnds9.a(system.o)
 .ARM.attributes
                0x00000639       0x2b /opt/devkitpro/libnds/lib/libnds9.a(sd.twl.o)
 .ARM.attributes
                0x00000664       0x1c /opt/devkitpro/devkitARM/bin/../lib/gcc/arm-none-eabi/12.2.0/libgcc.a(_udivsi3.o)
 .ARM.attributes
                0x00000680       0x1c /opt/devkitpro/devkitARM/bin/../lib/gcc/arm-none-eabi/12.2.0/libgcc.a(_divsi3.o)
 .ARM.attributes
                0x0000069c       0x1c /opt/devkitpro/devkitARM/bin/../lib/gcc/arm-none-eabi/12.2.0/libgcc.a(_dvmd_tls.o)
 .ARM.attributes
                0x000006b8       0x1c /opt/devkitpro/devkitARM/bin/../lib/gcc/arm-none-eabi/12.2.0/libgcc.a(_aeabi_ldivmod.o)
 .ARM.attributes
                0x000006d4       0x2a /opt/devkitpro/devkitARM/bin/../lib/gcc/arm-none-eabi/12.2.0/libgcc.a(_muldi3.o)
 .ARM.attributes
                0x000006fe       0x2a /opt/devkitpro/devkitARM/bin/../lib/gcc/arm-none-eabi/12.2.0/libgcc.a(_udivmoddi4.o)
 .ARM.attributes
                0x00000728       0x1c /opt/devkitpro/devkitARM/bin/../lib/gcc/arm-none-eabi/12.2.0/libgcc.a(_clzdi2.o)
 .ARM.attributes
                0x00000744       0x1c /opt/devkitpro/devkitARM/bin/../lib/gcc/arm-none-eabi/12.2.0/libgcc.a(_clzsi2.o)
 .ARM.attributes
                0x00000760       0x2a /opt/devkitpro/devkitARM/bin/../lib/gcc/arm-none-eabi/12.2.0/../../../../arm-none-eabi/lib/libg.a(libc_a-calloc.o)
 .ARM.attributes
                0x0000078a       0x2a /opt/devkitpro/devkitARM/bin/../lib/gcc/arm-none-eabi/12.2.0/../../../../arm-none-eabi/lib/libg.a(libc_a-callocr.o)
 .ARM.attributes
                0x000007b4       0x2a /opt/devkitpro/devkitARM/bin/../lib/gcc/arm-none-eabi/12.2.0/../../../../arm-none-eabi/lib/libg.a(libc_a-malloc.o)
 .ARM.attributes
                0x000007de       0x2a /opt/devkitpro/devkitARM/bin/../lib/gcc/arm-none-eabi/12.2.0/../../../../arm-none-eabi/lib/libg.a(libc_a-mallocr.o)
 .ARM.attributes
                0x00000808       0x2a /opt/devkitpro/devkitARM/bin/../lib/gcc/arm-none-eabi/12.2.0/../../../../arm-none-eabi/lib/libg.a(libc_a-mlock.o)
 .ARM.attributes
                0x00000832       0x2a /opt/devkitpro/devkitARM/bin/../lib/gcc/arm-none-eabi/12.2.0/../../../../arm-none-eabi/lib/libg.a(libc_a-realloc.o)
 .ARM.attributes
                0x0000085c       0x2a /opt/devkitpro/devkitARM/bin/../lib/gcc/arm-none-eabi/12.2.0/../../../../arm-none-eabi/lib/libg.a(libc_a-reallocr.o)
 .ARM.attributes
                0x00000886       0x2a /opt/devkitpro/devkitARM/bin/../lib/gcc/arm-none-eabi/12.2.0/../../../../arm-none-eabi/lib/libg.a(libc_a-mbrtowc.o)
 .ARM.attributes
                0x000008b0       0x2a /opt/devkitpro/devkitARM/bin/../lib/gcc/arm-none-eabi/12.2.0/../../../../arm-none-eabi/lib/libg.a(libc_a-mbsrtowcs.o)
 .ARM.attributes
                0x000008da       0x2a /opt/devkitpro/devkitARM/bin/../lib/gcc/arm-none-eabi/12.2.0/../../../../arm-none-eabi/lib/libg.a(libc_a-wcrtomb.o)
 .ARM.attributes
                0x00000904       0x2a /opt/devkitpro/devkitARM/bin/../lib/gcc/arm-none-eabi/12.2.0/../../../../arm-none-eabi/lib/libg.a(libc_a-wctob.o)
 .ARM.attributes
                0x0000092e       0x2a /opt/devkitpro/devkitARM/bin/../lib/gcc/arm-none-eabi/12.2.0/../../../../arm-none-eabi/lib/libg.a(libc_a-ctype_.o)
 .ARM.attributes
                0x00000958       0x2a /opt/devkitpro/devkitARM/bin/../lib/gcc/arm-none-eabi/12.2.0/../../../../arm-none-eabi/lib/libg.a(libc_a-towlower.o)
 .ARM.attributes
                0x00000982       0x2a /opt/devkitpro/devkitARM/bin/../lib/gcc/arm-none-eabi/12.2.0/../../../../arm-none-eabi/lib/libg.a(libc_a-towupper.o)
 .ARM.attributes
                0x000009ac       0x2a /opt/devkitpro/devkitARM/bin/../lib/gcc/arm-none-eabi/12.2.0/../../../../arm-none-eabi/lib/libg.a(libc_a-iprintf.o)
 .ARM.attributes
                0x000009d6       0x2a /opt/devkitpro/devkitARM/bin/../lib/gcc/arm-none-eabi/12.2.0/../../../../arm-none-eabi/lib/libg.a(libc_a-siscanf.o)
 .ARM.attributes
                0x00000a00       0x2a /opt/devkitpro/devkitARM/bin/../lib/gcc/arm-none-eabi/12.2.0/../../../../arm-none-eabi/lib/libg.a(libc_a-svfiscanf.o)
 .ARM.attributes
                0x00000a2a       0x2a /opt/devkitpro/devkitARM/bin/../lib/gcc/arm-none-eabi/12.2.0/../../../../arm-none-eabi/lib/libg.a(libc_a-vfiprintf.o)
 .ARM.attributes
                0x00000a54       0x2a /opt/devkitpro/devkitARM/bin/../lib/gcc/arm-none-eabi/12.2.0/../../../../arm-none-eabi/lib/libg.a(libc_a-fclose.o)
 .ARM.attributes
                0x00000a7e       0x2a /opt/devkitpro/devkitARM/bin/../lib/gcc/arm-none-eabi/12.2.0/../../../../arm-none-eabi/lib/libg.a(libc_a-fflush.o)
 .ARM.attributes
                0x00000aa8       0x2a /opt/devkitpro/devkitARM/bin/../lib/gcc/arm-none-eabi/12.2.0/../../../../arm-none-eabi/lib/libg.a(libc_a-findfp.o)
 .ARM.attributes
                0x00000ad2       0x2a /opt/devkitpro/devkitARM/bin/../lib/gcc/arm-none-eabi/12.2.0/../../../../arm-none-eabi/lib/libg.a(libc_a-fopen.o)
 .ARM.attributes
                0x00000afc       0x2a /opt/devkitpro/devkitARM/bin/../lib/gcc/arm-none-eabi/12.2.0/../../../../arm-none-eabi/lib/libg.a(libc_a-fread.o)
 .ARM.attributes
                0x00000b26       0x2a /opt/devkitpro/devkitARM/bin/../lib/gcc/arm-none-eabi/12.2.0/../../../../arm-none-eabi/lib/libg.a(libc_a-fseek.o)
 .ARM.attributes
                0x00000b50       0x2a /opt/devkitpro/devkitARM/bin/../lib/gcc/arm-none-eabi/12.2.0/../../../../arm-none-eabi/lib/libg.a(libc_a-ftell.o)
 .ARM.attributes
                0x00000b7a       0x2a /opt/devkitpro/devkitARM/bin/../lib/gcc/arm-none-eabi/12.2.0/../../../../arm-none-eabi/lib/libg.a(libc_a-fvwrite.o)
 .ARM.attributes
                0x00000ba4       0x2a /opt/devkitpro/devkitARM/bin/../lib/gcc/arm-none-eabi/12.2.0/../../../../arm-none-eabi/lib/libg.a(libc_a-fwalk.o)
 .ARM.attributes
                0x00000bce       0x2a /opt/devkitpro/devkitARM/bin/../lib/gcc/arm-none-eabi/12.2.0/../../../../arm-none-eabi/lib/libg.a(libc_a-makebuf.o)
 .ARM.attributes
                0x00000bf8       0x2a /opt/devkitpro/devkitARM/bin/../lib/gcc/arm-none-eabi/12.2.0/../../../../arm-none-eabi/lib/libg.a(libc_a-puts.o)
 .ARM.attributes
                0x00000c22       0x2a /opt/devkitpro/devkitARM/bin/../lib/gcc/arm-none-eabi/12.2.0/../../../../arm-none-eabi/lib/libg.a(libc_a-refill.o)
 .ARM.attributes
                0x00000c4c       0x2a /opt/devkitpro/devkitARM/bin/../lib/gcc/arm-none-eabi/12.2.0/../../../../arm-none-eabi/lib/libg.a(libc_a-rewind.o)
 .ARM.attributes
                0x00000c76       0x2a /opt/devkitpro/devkitARM/bin/../lib/gcc/arm-none-eabi/12.2.0/../../../../arm-none-eabi/lib/libg.a(libc_a-sccl.o)
 .ARM.attributes
                0x00000ca0       0x2a /opt/devkitpro/devkitARM/bin/../lib/gcc/arm-none-eabi/12.2.0/../../../../arm-none-eabi/lib/libg.a(libc_a-setvbuf.o)
 .ARM.attributes
                0x00000cca       0x2a /opt/devkitpro/devkitARM/bin/../lib/gcc/arm-none-eabi/12.2.0/../../../../arm-none-eabi/lib/libg.a(libc_a-snprintf.o)
 .ARM.attributes
                0x00000cf4       0x2a /opt/devkitpro/devkitARM/bin/../lib/gcc/arm-none-eabi/12.2.0/../../../../arm-none-eabi/lib/libg.a(libc_a-stdio.o)
 .ARM.attributes
                0x00000d1e       0x2a /opt/devkitpro/devkitARM/bin/../lib/gcc/arm-none-eabi/12.2.0/../../../../arm-none-eabi/lib/libg.a(libc_a-ungetc.o)
 .ARM.attributes
                0x00000d48       0x2a /opt/devkitpro/devkitARM/bin/../lib/gcc/arm-none-eabi/12.2.0/../../../../arm-none-eabi/lib/libg.a(libc_a-wsetup.o)
 .ARM.attributes
                0x00000d72       0x2a /opt/devkitpro/devkitARM/bin/../lib/gcc/arm-none-eabi/12.2.0/../../../../arm-none-eabi/lib/libg.a(libc_a-fseeko.o)
 .ARM.attributes
                0x00000d9c       0x2a /opt/devkitpro/devkitARM/bin/../lib/gcc/arm-none-eabi/12.2.0/../../../../arm-none-eabi/lib/libg.a(libc_a-ftello.o)
 .ARM.attributes
                0x00000dc6       0x2a /opt/devkitpro/devkitARM/bin/../lib/gcc/arm-none-eabi/12.2.0/../../../../arm-none-eabi/lib/libg.a(libc_a-memcmp.o)
 .ARM.attributes
                0x00000df0       0x2a /opt/devkitpro/devkitARM/bin/../lib/gcc/arm-none-eabi/12.2.0/../../../../arm-none-eabi/lib/libg.a(libc_a-memmove.o)
 .ARM.attributes
                0x00000e1a       0x2a /opt/devkitpro/devkitARM/bin/../lib/gcc/arm-none-eabi/12.2.0/../../../../arm-none-eabi/lib/libg.a(libc_a-memset.o)
 .ARM.attributes
                0x00000e44       0x2a /opt/devkitpro/devkitARM/bin/../lib/gcc/arm-none-eabi/12.2.0/../../../../arm-none-eabi/lib/libg.a(libc_a-strcasecmp.o)
 .ARM.attributes
                0x00000e6e       0x2a /opt/devkitpro/devkitARM/bin/../lib/gcc/arm-none-eabi/12.2.0/../../../../arm-none-eabi/lib/libg.a(libc_a-strchr.o)
 .ARM.attributes
                0x00000e98       0x2a /opt/devkitpro/devkitARM/bin/../lib/gcc/arm-none-eabi/12.2.0/../../../../arm-none-eabi/lib/libg.a(libc_a-strdup.o)
 .ARM.attributes
                0x00000ec2       0x2a /opt/devkitpro/devkitARM/bin/../lib/gcc/arm-none-eabi/12.2.0/../../../../arm-none-eabi/lib/libg.a(libc_a-strdup_r.o)
 .ARM.attributes
                0x00000eec       0x2a /opt/devkitpro/devkitARM/bin/../lib/gcc/arm-none-eabi/12.2.0/../../../../arm-none-eabi/lib/libg.a(libc_a-strlen.o)
 .ARM.attributes
                0x00000f16       0x2a /opt/devkitpro/devkitARM/bin/../lib/gcc/arm-none-eabi/12.2.0/../../../../arm-none-eabi/lib/libg.a(libc_a-strncasecmp.o)
 .ARM.attributes
                0x00000f40       0x2a /opt/devkitpro/devkitARM/bin/../lib/gcc/arm-none-eabi/12.2.0/../../../../arm-none-eabi/lib/libg.a(libc_a-strncmp.o)
 .ARM.attributes
                0x00000f6a       0x2a /opt/devkitpro/devkitARM/bin/../lib/gcc/arm-none-eabi/12.2.0/../../../../arm-none-eabi/lib/libg.a(libc_a-strncpy.o)
 .ARM.attributes
                0x00000f94       0x2a /opt/devkitpro/devkitARM/bin/../lib/gcc/arm-none-eabi/12.2.0/../../../../arm-none-eabi/lib/libg.a(libc_a-strnlen.o)
 .ARM.attributes
                0x00000fbe       0x2a /opt/devkitpro/devkitARM/bin/../lib/gcc/arm-none-eabi/12.2.0/../../../../arm-none-eabi/lib/libg.a(libc_a-strpbrk.o)
 .ARM.attributes
                0x00000fe8       0x2a /opt/devkitpro/devkitARM/bin/../lib/gcc/arm-none-eabi/12.2.0/../../../../arm-none-eabi/lib/libg.a(libc_a-strrchr.o)
 .ARM.attributes
                0x00001012       0x2a /opt/devkitpro/devkitARM/bin/../lib/gcc/arm-none-eabi/12.2.0/../../../../arm-none-eabi/lib/libg.a(libc_a-stpcpy.o)
 .ARM.attributes
                0x0000103c       0x2a /opt/devkitpro/devkitARM/bin/../lib/gcc/arm-none-eabi/12.2.0/../../../../arm-none-eabi/lib/libg.a(libc_a-lcltime_r.o)
 .ARM.attributes
                0x00001066       0x2a /opt/devkitpro/devkitARM/bin/../lib/gcc/arm-none-eabi/12.2.0/../../../../arm-none-eabi/lib/libg.a(libc_a-mktime.o)
 .ARM.attributes
                0x00001090       0x2a /opt/devkitpro/devkitARM/bin/../lib/gcc/arm-none-eabi/12.2.0/../../../../arm-none-eabi/lib/libg.a(libc_a-month_lengths.o)
 .ARM.attributes
                0x000010ba       0x2a /opt/devkitpro/devkitARM/bin/../lib/gcc/arm-none-eabi/12.2.0/../../../../arm-none-eabi/lib/libg.a(libc_a-time.o)
 .ARM.attributes
                0x000010e4       0x2a /opt/devkitpro/devkitARM/bin/../lib/gcc/arm-none-eabi/12.2.0/../../../../arm-none-eabi/lib/libg.a(libc_a-tzcalc_limits.o)
 .ARM.attributes
                0x0000110e       0x2a /opt/devkitpro/devkitARM/bin/../lib/gcc/arm-none-eabi/12.2.0/../../../../arm-none-eabi/lib/libg.a(libc_a-tzlock.o)
 .ARM.attributes
                0x00001138       0x2a /opt/devkitpro/devkitARM/bin/../lib/gcc/arm-none-eabi/12.2.0/../../../../arm-none-eabi/lib/libg.a(libc_a-tzset.o)
 .ARM.attributes
                0x00001162       0x2a /opt/devkitpro/devkitARM/bin/../lib/gcc/arm-none-eabi/12.2.0/../../../../arm-none-eabi/lib/libg.a(libc_a-tzset_r.o)
 .ARM.attributes
                0x0000118c       0x2a /opt/devkitpro/devkitARM/bin/../lib/gcc/arm-none-eabi/12.2.0/../../../../arm-none-eabi/lib/libg.a(libc_a-tzvars.o)
 .ARM.attributes
                0x000011b6       0x2a /opt/devkitpro/devkitARM/bin/../lib/gcc/arm-none-eabi/12.2.0/../../../../arm-none-eabi/lib/libg.a(libc_a-locale.o)
 .ARM.attributes
                0x000011e0       0x2a /opt/devkitpro/devkitARM/bin/../lib/gcc/arm-none-eabi/12.2.0/../../../../arm-none-eabi/lib/libg.a(libc_a-localeconv.o)
 .ARM.attributes
                0x0000120a       0x2a /opt/devkitpro/devkitARM/bin/../lib/gcc/arm-none-eabi/12.2.0/../../../../arm-none-eabi/lib/libg.a(libc_a-impure.o)
 .ARM.attributes
                0x00001234       0x2a /opt/devkitpro/devkitARM/bin/../lib/gcc/arm-none-eabi/12.2.0/../../../../arm-none-eabi/lib/libg.a(libc_a-errno.o)
 .ARM.attributes
                0x0000125e       0x2a /opt/devkitpro/devkitARM/bin/../lib/gcc/arm-none-eabi/12.2.0/../../../../arm-none-eabi/lib/libg.a(libc_a-init.o)
 .ARM.attributes
                0x00001288       0x2a /opt/devkitpro/devkitARM/bin/../lib/gcc/arm-none-eabi/12.2.0/../../../../arm-none-eabi/lib/libg.a(libc_a-syslseek.o)
 .ARM.attributes
                0x000012b2       0x2a /opt/devkitpro/devkitARM/bin/../lib/gcc/arm-none-eabi/12.2.0/../../../../arm-none-eabi/lib/libg.a(libc_a-sysopen.o)
 .ARM.attributes
                0x000012dc       0x2a /opt/devkitpro/devkitARM/bin/../lib/gcc/arm-none-eabi/12.2.0/../../../../arm-none-eabi/lib/libg.a(libc_a-sysread.o)
 .ARM.attributes
                0x00001306       0x2a /opt/devkitpro/devkitARM/bin/../lib/gcc/arm-none-eabi/12.2.0/../../../../arm-none-eabi/lib/libg.a(libc_a-access.o)
 .ARM.attributes
                0x00001330       0x1a /opt/devkitpro/devkitARM/bin/../lib/gcc/arm-none-eabi/12.2.0/../../../../arm-none-eabi/lib/libg.a(libc_a-strcmp.o)
 .ARM.attributes
                0x0000134a       0x2a /opt/devkitpro/devkitARM/bin/../lib/gcc/arm-none-eabi/12.2.0/../../../../arm-none-eabi/lib/libg.a(libc_a-strcpy.o)
 .ARM.attributes
                0x00001374       0x2a /opt/devkitpro/devkitARM/bin/../lib/gcc/arm-none-eabi/12.2.0/../../../../arm-none-eabi/lib/libg.a(libc_a-memchr-stub.o)
 .ARM.attributes
                0x0000139e       0x2a /opt/devkitpro/devkitARM/bin/../lib/gcc/arm-none-eabi/12.2.0/../../../../arm-none-eabi/lib/libg.a(libc_a-memcpy-stub.o)
 .ARM.attributes
                0x000013c8       0x2a /opt/devkitpro/devkitARM/bin/../lib/gcc/arm-none-eabi/12.2.0/../../../../arm-none-eabi/lib/libg.a(libc_a-div.o)
 .ARM.attributes
                0x000013f2       0x2a /opt/devkitpro/devkitARM/bin/../lib/gcc/arm-none-eabi/12.2.0/../../../../arm-none-eabi/lib/libg.a(libc_a-freer.o)
 .ARM.attributes
                0x0000141c       0x2a /opt/devkitpro/devkitARM/bin/../lib/gcc/arm-none-eabi/12.2.0/../../../../arm-none-eabi/lib/libg.a(libc_a-getenv_r.o)
 .ARM.attributes
                0x00001446       0x2a /opt/devkitpro/devkitARM/bin/../lib/gcc/arm-none-eabi/12.2.0/../../../../arm-none-eabi/lib/libg.a(libc_a-mbtowc_r.o)
 .ARM.attributes
                0x00001470       0x2a /opt/devkitpro/devkitARM/bin/../lib/gcc/arm-none-eabi/12.2.0/../../../../arm-none-eabi/lib/libg.a(libc_a-strtol.o)
 .ARM.attributes
                0x0000149a       0x2a /opt/devkitpro/devkitARM/bin/../lib/gcc/arm-none-eabi/12.2.0/../../../../arm-none-eabi/lib/libg.a(libc_a-strtoul.o)
 .ARM.attributes
                0x000014c4       0x2a /opt/devkitpro/devkitARM/bin/../lib/gcc/arm-none-eabi/12.2.0/../../../../arm-none-eabi/lib/libg.a(libc_a-wctomb_r.o)
 .ARM.attributes
                0x000014ee       0x2a /opt/devkitpro/devkitARM/bin/../lib/gcc/arm-none-eabi/12.2.0/../../../../arm-none-eabi/lib/libg.a(libc_a-strtoll.o)
 .ARM.attributes
                0x00001518       0x2a /opt/devkitpro/devkitARM/bin/../lib/gcc/arm-none-eabi/12.2.0/../../../../arm-none-eabi/lib/libg.a(libc_a-strtoull.o)
 .ARM.attributes
                0x00001542       0x2a /opt/devkitpro/devkitARM/bin/../lib/gcc/arm-none-eabi/12.2.0/../../../../arm-none-eabi/lib/libg.a(libc_a-malign.o)
 .ARM.attributes
                0x0000156c       0x2a /opt/devkitpro/devkitARM/bin/../lib/gcc/arm-none-eabi/12.2.0/../../../../arm-none-eabi/lib/libg.a(libc_a-malignr.o)
 .ARM.attributes
                0x00001596       0x2a /opt/devkitpro/devkitARM/bin/../lib/gcc/arm-none-eabi/12.2.0/../../../../arm-none-eabi/lib/libg.a(libc_a-mbsnrtowcs.o)
 .ARM.attributes
                0x000015c0       0x2a /opt/devkitpro/devkitARM/bin/../lib/gcc/arm-none-eabi/12.2.0/../../../../arm-none-eabi/lib/libg.a(libc_a-wcsrtombs.o)
 .ARM.attributes
                0x000015ea       0x2a /opt/devkitpro/devkitARM/bin/../lib/gcc/arm-none-eabi/12.2.0/../../../../arm-none-eabi/lib/libg.a(libc_a-iswspace.o)
 .ARM.attributes
                0x00001614       0x2a /opt/devkitpro/devkitARM/bin/../lib/gcc/arm-none-eabi/12.2.0/../../../../arm-none-eabi/lib/libg.a(libc_a-iswspace_l.o)
 .ARM.attributes
                0x0000163e       0x2a /opt/devkitpro/devkitARM/bin/../lib/gcc/arm-none-eabi/12.2.0/../../../../arm-none-eabi/lib/libg.a(libc_a-towctrans.o)
 .ARM.attributes
                0x00001668       0x2a /opt/devkitpro/devkitARM/bin/../lib/gcc/arm-none-eabi/12.2.0/../../../../arm-none-eabi/lib/libg.a(libc_a-towctrans_l.o)
 .ARM.attributes
                0x00001692       0x2a /opt/devkitpro/devkitARM/bin/../lib/gcc/arm-none-eabi/12.2.0/../../../../arm-none-eabi/lib/libg.a(libc_a-svfiprintf.o)
 .ARM.attributes
                0x000016bc       0x2a /opt/devkitpro/devkitARM/bin/../lib/gcc/arm-none-eabi/12.2.0/../../../../arm-none-eabi/lib/libg.a(libc_a-svfprintf.o)
 .ARM.attributes
                0x000016e6       0x2a /opt/devkitpro/devkitARM/bin/../lib/gcc/arm-none-eabi/12.2.0/../../../../arm-none-eabi/lib/libg.a(libc_a-flags.o)
 .ARM.attributes
                0x00001710       0x2a /opt/devkitpro/devkitARM/bin/../lib/gcc/arm-none-eabi/12.2.0/../../../../arm-none-eabi/lib/libg.a(libc_a-gettzinfo.o)
 .ARM.attributes
                0x0000173a       0x2a /opt/devkitpro/devkitARM/bin/../lib/gcc/arm-none-eabi/12.2.0/../../../../arm-none-eabi/lib/libg.a(libc_a-gmtime_r.o)
 .ARM.attributes
                0x00001764       0x2a /opt/devkitpro/devkitARM/bin/../lib/gcc/arm-none-eabi/12.2.0/../../../../arm-none-eabi/lib/libg.a(libc_a-sysstat.o)
 .ARM.attributes
                0x0000178e       0x2a /opt/devkitpro/devkitARM/bin/../lib/gcc/arm-none-eabi/12.2.0/../../../../arm-none-eabi/lib/libg.a(libm_a-s_frexp.o)
 .ARM.attributes
                0x000017b8       0x2a /opt/devkitpro/devkitARM/bin/../lib/gcc/arm-none-eabi/12.2.0/../../../../arm-none-eabi/lib/libg.a(libc_a-dtoa.o)
 .ARM.attributes
                0x000017e2       0x2a /opt/devkitpro/devkitARM/bin/../lib/gcc/arm-none-eabi/12.2.0/../../../../arm-none-eabi/lib/libg.a(libc_a-environ.o)
 .ARM.attributes
                0x0000180c       0x2a /opt/devkitpro/devkitARM/bin/../lib/gcc/arm-none-eabi/12.2.0/../../../../arm-none-eabi/lib/libg.a(libc_a-envlock.o)
 .ARM.attributes
                0x00001836       0x2a /opt/devkitpro/devkitARM/bin/../lib/gcc/arm-none-eabi/12.2.0/../../../../arm-none-eabi/lib/libg.a(libc_a-mprec.o)
 .ARM.attributes
                0x00001860       0x2a /opt/devkitpro/devkitARM/bin/../lib/gcc/arm-none-eabi/12.2.0/../../../../arm-none-eabi/lib/libg.a(libc_a-wcsnrtombs.o)
 .ARM.attributes
                0x0000188a       0x2a /opt/devkitpro/devkitARM/bin/../lib/gcc/arm-none-eabi/12.2.0/../../../../arm-none-eabi/lib/libg.a(libc_a-categories.o)
 .ARM.attributes
                0x000018b4       0x2a /opt/devkitpro/devkitARM/bin/../lib/gcc/arm-none-eabi/12.2.0/../../../../arm-none-eabi/lib/libg.a(libc_a-assert.o)
 .ARM.attributes
                0x000018de       0x2a /opt/devkitpro/devkitARM/bin/../lib/gcc/arm-none-eabi/12.2.0/../../../../arm-none-eabi/lib/libg.a(libc_a-fiprintf.o)
 .ARM.attributes
                0x00001908       0x2a /opt/devkitpro/devkitARM/bin/../lib/gcc/arm-none-eabi/12.2.0/../../../../arm-none-eabi/lib/libg.a(libc_a-abort.o)
 .ARM.attributes
                0x00001932       0x2a /opt/devkitpro/devkitARM/bin/../lib/gcc/arm-none-eabi/12.2.0/../../../../arm-none-eabi/lib/libg.a(libc_a-signal.o)
 .ARM.attributes
                0x0000195c       0x2a /opt/devkitpro/devkitARM/bin/../lib/gcc/arm-none-eabi/12.2.0/../../../../arm-none-eabi/lib/libsysbase.a(libsysbase_libsysbase_a-_exit.o)
 .ARM.attributes
                0x00001986       0x2a /opt/devkitpro/devkitARM/bin/../lib/gcc/arm-none-eabi/12.2.0/../../../../arm-none-eabi/lib/libsysbase.a(libsysbase_libsysbase_a-build_argv.o)
 .ARM.attributes
                0x000019b0       0x2a /opt/devkitpro/devkitARM/bin/../lib/gcc/arm-none-eabi/12.2.0/../../../../arm-none-eabi/lib/libsysbase.a(libsysbase_libsysbase_a-chdir.o)
 .ARM.attributes
                0x000019da       0x2a /opt/devkitpro/devkitARM/bin/../lib/gcc/arm-none-eabi/12.2.0/../../../../arm-none-eabi/lib/libsysbase.a(libsysbase_libsysbase_a-fstat.o)
 .ARM.attributes
                0x00001a04       0x2a /opt/devkitpro/devkitARM/bin/../lib/gcc/arm-none-eabi/12.2.0/../../../../arm-none-eabi/lib/libsysbase.a(libsysbase_libsysbase_a-getpid.o)
 .ARM.attributes
                0x00001a2e       0x2a /opt/devkitpro/devkitARM/bin/../lib/gcc/arm-none-eabi/12.2.0/../../../../arm-none-eabi/lib/libsysbase.a(libsysbase_libsysbase_a-getreent.o)
 .ARM.attributes
                0x00001a58       0x2a /opt/devkitpro/devkitARM/bin/../lib/gcc/arm-none-eabi/12.2.0/../../../../arm-none-eabi/lib/libsysbase.a(libsysbase_libsysbase_a-gettod.o)
 .ARM.attributes
                0x00001a82       0x2a /opt/devkitpro/devkitARM/bin/../lib/gcc/arm-none-eabi/12.2.0/../../../../arm-none-eabi/lib/libsysbase.a(libsysbase_libsysbase_a-handle_manager.o)
 .ARM.attributes
                0x00001aac       0x2a /opt/devkitpro/devkitARM/bin/../lib/gcc/arm-none-eabi/12.2.0/../../../../arm-none-eabi/lib/libsysbase.a(libsysbase_libsysbase_a-iosupport.o)
 .ARM.attributes
                0x00001ad6       0x2a /opt/devkitpro/devkitARM/bin/../lib/gcc/arm-none-eabi/12.2.0/../../../../arm-none-eabi/lib/libsysbase.a(libsysbase_libsysbase_a-isatty.o)
 .ARM.attributes
                0x00001b00       0x2a /opt/devkitpro/devkitARM/bin/../lib/gcc/arm-none-eabi/12.2.0/../../../../arm-none-eabi/lib/libsysbase.a(libsysbase_libsysbase_a-kill.o)
 .ARM.attributes
                0x00001b2a       0x2a /opt/devkitpro/devkitARM/bin/../lib/gcc/arm-none-eabi/12.2.0/../../../../arm-none-eabi/lib/libsysbase.a(libsysbase_libsysbase_a-lseek.o)
 .ARM.attributes
                0x00001b54       0x2a /opt/devkitpro/devkitARM/bin/../lib/gcc/arm-none-eabi/12.2.0/../../../../arm-none-eabi/lib/libsysbase.a(libsysbase_libsysbase_a-malloc_vars.o)
 .ARM.attributes
                0x00001b7e       0x2a /opt/devkitpro/devkitARM/bin/../lib/gcc/arm-none-eabi/12.2.0/../../../../arm-none-eabi/lib/libsysbase.a(libsysbase_libsysbase_a-open.o)
 .ARM.attributes
                0x00001ba8       0x2a /opt/devkitpro/devkitARM/bin/../lib/gcc/arm-none-eabi/12.2.0/../../../../arm-none-eabi/lib/libsysbase.a(libsysbase_libsysbase_a-read.o)
 .ARM.attributes
                0x00001bd2       0x2a /opt/devkitpro/devkitARM/bin/../lib/gcc/arm-none-eabi/12.2.0/../../../../arm-none-eabi/lib/libsysbase.a(libsysbase_libsysbase_a-sbrk.o)
 .ARM.attributes
                0x00001bfc       0x2a /opt/devkitpro/devkitARM/bin/../lib/gcc/arm-none-eabi/12.2.0/../../../../arm-none-eabi/lib/libsysbase.a(libsysbase_libsysbase_a-stat.o)
 .ARM.attributes
                0x00001c26       0x2a /opt/devkitpro/devkitARM/bin/../lib/gcc/arm-none-eabi/12.2.0/../../../../arm-none-eabi/lib/libsysbase.a(libsysbase_libsysbase_a-syscall_support.o)
 .ARM.attributes
                0x00001c50       0x2a /opt/devkitpro/devkitARM/bin/../lib/gcc/arm-none-eabi/12.2.0/../../../../arm-none-eabi/lib/libsysbase.a(libsysbase_libsysbase_a-write.o)
 .ARM.attributes
                0x00001c7a       0x1c /opt/devkitpro/devkitARM/bin/../lib/gcc/arm-none-eabi/12.2.0/libgcc.a(_arm_addsubdf3.o)
 .ARM.attributes
                0x00001c96       0x1c /opt/devkitpro/devkitARM/bin/../lib/gcc/arm-none-eabi/12.2.0/libgcc.a(_arm_muldivdf3.o)
 .ARM.attributes
                0x00001cb2       0x1c /opt/devkitpro/devkitARM/bin/../lib/gcc/arm-none-eabi/12.2.0/libgcc.a(_arm_cmpdf2.o)
 .ARM.attributes
                0x00001cce       0x1c /opt/devkitpro/devkitARM/bin/../lib/gcc/arm-none-eabi/12.2.0/libgcc.a(_arm_unorddf2.o)
 .ARM.attributes
                0x00001cea       0x1c /opt/devkitpro/devkitARM/bin/../lib/gcc/arm-none-eabi/12.2.0/libgcc.a(_arm_fixdfsi.o)
 .ARM.attributes
                0x00001d06       0x1c /opt/devkitpro/devkitARM/bin/../lib/gcc/arm-none-eabi/12.2.0/libgcc.a(_aeabi_uldivmod.o)
 .ARM.attributes
                0x00001d22       0x2a /opt/devkitpro/devkitARM/bin/../lib/gcc/arm-none-eabi/12.2.0/crtend.o
 .ARM.attributes
                0x00001d4c       0x1c /opt/devkitpro/devkitARM/bin/../lib/gcc/arm-none-eabi/12.2.0/crtn.o

.debug
 *(.debug)

.line
 *(.line)

.debug_srcinfo
 *(.debug_srcinfo)

.debug_sfnames
 *(.debug_sfnames)

.debug_aranges  0x00000000      0xb78
 *(.debug_aranges)
 .debug_aranges
                0x00000000       0x20 main.o
 .debug_aranges
                0x00000020       0x20 /opt/devkitpro/nflib/lib/libnflib.a(nf_2d.o)
 .debug_aranges
                0x00000040       0x20 /opt/devkitpro/nflib/lib/libnflib.a(nf_basic.o)
 .debug_aranges
                0x00000060       0x20 /opt/devkitpro/nflib/lib/libnflib.a(nf_sprite256.o)
 .debug_aranges
                0x00000080       0x20 /opt/devkitpro/nflib/lib/libnflib.a(nf_tiledbg.o)
 .debug_aranges
                0x000000a0       0x80 /opt/devkitpro/libnds/lib/libfilesystem.a(nitrofs.o)
 .debug_aranges
                0x00000120       0x50 /opt/devkitpro/libnds/lib/libfat.a(libfat.o)
 .debug_aranges
                0x00000170       0x18 /opt/devkitpro/libnds/lib/libfat.a(disc.o)
 .debug_aranges
                0x00000188       0x90 /opt/devkitpro/libnds/lib/libfat.a(fatfile.o)
 .debug_aranges
                0x00000218       0x78 /opt/devkitpro/libnds/lib/libfat.a(cache.o)
 .debug_aranges
                0x00000290       0x70 /opt/devkitpro/libnds/lib/libfat.a(fatdir.o)
 .debug_aranges
                0x00000300       0x98 /opt/devkitpro/libnds/lib/libfat.a(directory.o)
 .debug_aranges
                0x00000398       0x90 /opt/devkitpro/libnds/lib/libfat.a(partition.o)
 .debug_aranges
                0x00000428       0x20 /opt/devkitpro/libnds/lib/libfat.a(lock.o)
 .debug_aranges
                0x00000448       0x30 /opt/devkitpro/libnds/lib/libfat.a(filetime.o)
 .debug_aranges
                0x00000478       0x58 /opt/devkitpro/libnds/lib/libfat.a(file_allocation_table.o)
 .debug_aranges
                0x000004d0       0x48 /opt/devkitpro/libnds/lib/libnds9.a(video.o)
 .debug_aranges
                0x00000518       0x80 /opt/devkitpro/libnds/lib/libnds9.a(console.o)
 .debug_aranges
                0x00000598       0x60 /opt/devkitpro/libnds/lib/libnds9.a(sprite.o)
 .debug_aranges
                0x000005f8       0x50 /opt/devkitpro/libnds/lib/libnds9.a(keys.o)
 .debug_aranges
                0x00000648       0x48 /opt/devkitpro/libnds/lib/libnds9.a(dldi.o)
 .debug_aranges
                0x00000690       0x30 /opt/devkitpro/libnds/lib/libnds9.a(initSystem.o)
 .debug_aranges
                0x000006c0       0x18 /opt/devkitpro/libnds/lib/libnds9.a(securearea.o)
 .debug_aranges
                0x000006d8       0x50 /opt/devkitpro/libnds/lib/libnds9.a(interrupts.o)
 .debug_aranges
                0x00000728       0x28 /opt/devkitpro/libnds/lib/libnds9.a(libnds_exit.arm.o)
 .debug_aranges
                0x00000750       0x58 /opt/devkitpro/libnds/lib/libnds9.a(card.o)
 .debug_aranges
                0x000007a8       0xb0 /opt/devkitpro/libnds/lib/libnds9.a(fifosystem.o)
 .debug_aranges
                0x00000858       0x38 /opt/devkitpro/libnds/lib/libnds9.a(dcache.o)
 .debug_aranges
                0x00000890       0x20 /opt/devkitpro/libnds/lib/libnds9.a(dldi_stub.o)
 .debug_aranges
                0x000008b0       0x30 /opt/devkitpro/libnds/lib/libnds9.a(mpu_setup.o)
 .debug_aranges
                0x000008e0       0x28 /opt/devkitpro/libnds/lib/libnds9.a(IntrWait.o)
 .debug_aranges
                0x00000908       0x20 /opt/devkitpro/libnds/lib/libnds9.a(cpu_clock.o)
 .debug_aranges
                0x00000928       0x20 /opt/devkitpro/libnds/lib/libnds9.a(interruptDispatcher.o)
 .debug_aranges
                0x00000948       0xc8 /opt/devkitpro/libnds/lib/libnds9.a(biosCalls.o)
 .debug_aranges
                0x00000a10       0x20 /opt/devkitpro/libnds/lib/libnds9.a(swiSoftReset.o)
 .debug_aranges
                0x00000a30       0x40 /opt/devkitpro/libnds/lib/libnds9.a(background.o)
 .debug_aranges
                0x00000a70       0x60 /opt/devkitpro/libnds/lib/libnds9.a(trig.o)
 .debug_aranges
                0x00000ad0       0x68 /opt/devkitpro/libnds/lib/libnds9.a(system.o)
 .debug_aranges
                0x00000b38       0x40 /opt/devkitpro/libnds/lib/libnds9.a(sd.twl.o)

.debug_pubnames
 *(.debug_pubnames)

.debug_info     0x00000000    0x27c97
 *(.debug_info)
 .debug_info    0x00000000      0xea1 main.o
 .debug_info    0x00000ea1     0x1429 /opt/devkitpro/nflib/lib/libnflib.a(nf_2d.o)
 .debug_info    0x000022ca     0x1fb1 /opt/devkitpro/nflib/lib/libnflib.a(nf_basic.o)
 .debug_info    0x0000427b     0x25d5 /opt/devkitpro/nflib/lib/libnflib.a(nf_sprite256.o)
 .debug_info    0x00006850     0x3936 /opt/devkitpro/nflib/lib/libnflib.a(nf_tiledbg.o)
 .debug_info    0x0000a186     0x2897 /opt/devkitpro/libnds/lib/libfilesystem.a(nitrofs.o)
 .debug_info    0x0000ca1d     0x204d /opt/devkitpro/libnds/lib/libfat.a(libfat.o)
 .debug_info    0x0000ea6a      0x260 /opt/devkitpro/libnds/lib/libfat.a(disc.o)
 .debug_info    0x0000ecca     0x3783 /opt/devkitpro/libnds/lib/libfat.a(fatfile.o)
 .debug_info    0x0001244d     0x12da /opt/devkitpro/libnds/lib/libfat.a(cache.o)
 .debug_info    0x00013727     0x2833 /opt/devkitpro/libnds/lib/libfat.a(fatdir.o)
 .debug_info    0x00015f5a     0x2fcb /opt/devkitpro/libnds/lib/libfat.a(directory.o)
 .debug_info    0x00018f25     0x2c74 /opt/devkitpro/libnds/lib/libfat.a(partition.o)
 .debug_info    0x0001bb99      0x11d /opt/devkitpro/libnds/lib/libfat.a(lock.o)
 .debug_info    0x0001bcb6      0x289 /opt/devkitpro/libnds/lib/libfat.a(filetime.o)
 .debug_info    0x0001bf3f      0xf1c /opt/devkitpro/libnds/lib/libfat.a(file_allocation_table.o)
 .debug_info    0x0001ce5b      0x790 /opt/devkitpro/libnds/lib/libnds9.a(video.o)
 .debug_info    0x0001d5eb     0x26ac /opt/devkitpro/libnds/lib/libnds9.a(console.o)
 .debug_info    0x0001fc97      0xd00 /opt/devkitpro/libnds/lib/libnds9.a(sprite.o)
 .debug_info    0x00020997      0x43b /opt/devkitpro/libnds/lib/libnds9.a(keys.o)
 .debug_info    0x00020dd2      0xb9a /opt/devkitpro/libnds/lib/libnds9.a(dldi.o)
 .debug_info    0x0002196c     0x113e /opt/devkitpro/libnds/lib/libnds9.a(initSystem.o)
 .debug_info    0x00022aaa       0x5a /opt/devkitpro/libnds/lib/libnds9.a(securearea.o)
 .debug_info    0x00022b04      0x68d /opt/devkitpro/libnds/lib/libnds9.a(interrupts.o)
 .debug_info    0x00023191      0x367 /opt/devkitpro/libnds/lib/libnds9.a(libnds_exit.arm.o)
 .debug_info    0x000234f8      0x687 /opt/devkitpro/libnds/lib/libnds9.a(card.o)
 .debug_info    0x00023b7f     0x183f /opt/devkitpro/libnds/lib/libnds9.a(fifosystem.o)
 .debug_info    0x000253be       0x23 /opt/devkitpro/libnds/lib/libnds9.a(dcache.o)
 .debug_info    0x000253e1       0x26 /opt/devkitpro/libnds/lib/libnds9.a(dldi_stub.o)
 .debug_info    0x00025407       0x23 /opt/devkitpro/libnds/lib/libnds9.a(mpu_setup.o)
 .debug_info    0x0002542a       0x23 /opt/devkitpro/libnds/lib/libnds9.a(IntrWait.o)
 .debug_info    0x0002544d       0x24 /opt/devkitpro/libnds/lib/libnds9.a(cpu_clock.o)
 .debug_info    0x00025471       0x25 /opt/devkitpro/libnds/lib/libnds9.a(interruptDispatcher.o)
 .debug_info    0x00025496       0x23 /opt/devkitpro/libnds/lib/libnds9.a(biosCalls.o)
 .debug_info    0x000254b9       0x24 /opt/devkitpro/libnds/lib/libnds9.a(swiSoftReset.o)
 .debug_info    0x000254dd      0xa9c /opt/devkitpro/libnds/lib/libnds9.a(background.o)
 .debug_info    0x00025f79      0x793 /opt/devkitpro/libnds/lib/libnds9.a(trig.o)
 .debug_info    0x0002670c      0xa76 /opt/devkitpro/libnds/lib/libnds9.a(system.o)
 .debug_info    0x00027182      0xb15 /opt/devkitpro/libnds/lib/libnds9.a(sd.twl.o)

.debug_abbrev   0x00000000     0x673d
 *(.debug_abbrev)
 .debug_abbrev  0x00000000      0x2af main.o
 .debug_abbrev  0x000002af      0x404 /opt/devkitpro/nflib/lib/libnflib.a(nf_2d.o)
 .debug_abbrev  0x000006b3      0x446 /opt/devkitpro/nflib/lib/libnflib.a(nf_basic.o)
 .debug_abbrev  0x00000af9      0x53b /opt/devkitpro/nflib/lib/libnflib.a(nf_sprite256.o)
 .debug_abbrev  0x00001034      0x4c2 /opt/devkitpro/nflib/lib/libnflib.a(nf_tiledbg.o)
 .debug_abbrev  0x000014f6      0x4fd /opt/devkitpro/libnds/lib/libfilesystem.a(nitrofs.o)
 .debug_abbrev  0x000019f3      0x3e2 /opt/devkitpro/libnds/lib/libfat.a(libfat.o)
 .debug_abbrev  0x00001dd5       0xd8 /opt/devkitpro/libnds/lib/libfat.a(disc.o)
 .debug_abbrev  0x00001ead      0x507 /opt/devkitpro/libnds/lib/libfat.a(fatfile.o)
 .debug_abbrev  0x000023b4      0x3e5 /opt/devkitpro/libnds/lib/libfat.a(cache.o)
 .debug_abbrev  0x00002799      0x3e0 /opt/devkitpro/libnds/lib/libfat.a(fatdir.o)
 .debug_abbrev  0x00002b79      0x509 /opt/devkitpro/libnds/lib/libfat.a(directory.o)
 .debug_abbrev  0x00003082      0x564 /opt/devkitpro/libnds/lib/libfat.a(partition.o)
 .debug_abbrev  0x000035e6       0x92 /opt/devkitpro/libnds/lib/libfat.a(lock.o)
 .debug_abbrev  0x00003678       0xd5 /opt/devkitpro/libnds/lib/libfat.a(filetime.o)
 .debug_abbrev  0x0000374d      0x31a /opt/devkitpro/libnds/lib/libfat.a(file_allocation_table.o)
 .debug_abbrev  0x00003a67      0x24c /opt/devkitpro/libnds/lib/libnds9.a(video.o)
 .debug_abbrev  0x00003cb3      0x5b3 /opt/devkitpro/libnds/lib/libnds9.a(console.o)
 .debug_abbrev  0x00004266      0x3de /opt/devkitpro/libnds/lib/libnds9.a(sprite.o)
 .debug_abbrev  0x00004644      0x1a7 /opt/devkitpro/libnds/lib/libnds9.a(keys.o)
 .debug_abbrev  0x000047eb      0x2f8 /opt/devkitpro/libnds/lib/libnds9.a(dldi.o)
 .debug_abbrev  0x00004ae3      0x3e1 /opt/devkitpro/libnds/lib/libnds9.a(initSystem.o)
 .debug_abbrev  0x00004ec4       0x47 /opt/devkitpro/libnds/lib/libnds9.a(securearea.o)
 .debug_abbrev  0x00004f0b      0x2da /opt/devkitpro/libnds/lib/libnds9.a(interrupts.o)
 .debug_abbrev  0x000051e5      0x1ad /opt/devkitpro/libnds/lib/libnds9.a(libnds_exit.arm.o)
 .debug_abbrev  0x00005392      0x25a /opt/devkitpro/libnds/lib/libnds9.a(card.o)
 .debug_abbrev  0x000055ec      0x4bb /opt/devkitpro/libnds/lib/libnds9.a(fifosystem.o)
 .debug_abbrev  0x00005aa7       0x12 /opt/devkitpro/libnds/lib/libnds9.a(dcache.o)
 .debug_abbrev  0x00005ab9       0x14 /opt/devkitpro/libnds/lib/libnds9.a(dldi_stub.o)
 .debug_abbrev  0x00005acd       0x12 /opt/devkitpro/libnds/lib/libnds9.a(mpu_setup.o)
 .debug_abbrev  0x00005adf       0x12 /opt/devkitpro/libnds/lib/libnds9.a(IntrWait.o)
 .debug_abbrev  0x00005af1       0x14 /opt/devkitpro/libnds/lib/libnds9.a(cpu_clock.o)
 .debug_abbrev  0x00005b05       0x14 /opt/devkitpro/libnds/lib/libnds9.a(interruptDispatcher.o)
 .debug_abbrev  0x00005b19       0x12 /opt/devkitpro/libnds/lib/libnds9.a(biosCalls.o)
 .debug_abbrev  0x00005b2b       0x14 /opt/devkitpro/libnds/lib/libnds9.a(swiSoftReset.o)
 .debug_abbrev  0x00005b3f      0x366 /opt/devkitpro/libnds/lib/libnds9.a(background.o)
 .debug_abbrev  0x00005ea5      0x26e /opt/devkitpro/libnds/lib/libnds9.a(trig.o)
 .debug_abbrev  0x00006113      0x31f /opt/devkitpro/libnds/lib/libnds9.a(system.o)
 .debug_abbrev  0x00006432      0x30b /opt/devkitpro/libnds/lib/libnds9.a(sd.twl.o)

.debug_line     0x00000000    0x14275
 *(.debug_line)
 .debug_line    0x00000000      0x430 main.o
 .debug_line    0x00000430      0x815 /opt/devkitpro/nflib/lib/libnflib.a(nf_2d.o)
 .debug_line    0x00000c45      0x640 /opt/devkitpro/nflib/lib/libnflib.a(nf_basic.o)
 .debug_line    0x00001285     0x13a9 /opt/devkitpro/nflib/lib/libnflib.a(nf_sprite256.o)
 .debug_line    0x0000262e     0x1b98 /opt/devkitpro/nflib/lib/libnflib.a(nf_tiledbg.o)
 .debug_line    0x000041c6     0x101a /opt/devkitpro/libnds/lib/libfilesystem.a(nitrofs.o)
 .debug_line    0x000051e0      0x784 /opt/devkitpro/libnds/lib/libfat.a(libfat.o)
 .debug_line    0x00005964      0x141 /opt/devkitpro/libnds/lib/libfat.a(disc.o)
 .debug_line    0x00005aa5     0x2050 /opt/devkitpro/libnds/lib/libfat.a(fatfile.o)
 .debug_line    0x00007af5      0xb85 /opt/devkitpro/libnds/lib/libfat.a(cache.o)
 .debug_line    0x0000867a     0x1043 /opt/devkitpro/libnds/lib/libfat.a(fatdir.o)
 .debug_line    0x000096bd     0x2028 /opt/devkitpro/libnds/lib/libfat.a(directory.o)
 .debug_line    0x0000b6e5      0xec2 /opt/devkitpro/libnds/lib/libfat.a(partition.o)
 .debug_line    0x0000c5a7       0x87 /opt/devkitpro/libnds/lib/libfat.a(lock.o)
 .debug_line    0x0000c62e      0x276 /opt/devkitpro/libnds/lib/libfat.a(filetime.o)
 .debug_line    0x0000c8a4      0x895 /opt/devkitpro/libnds/lib/libfat.a(file_allocation_table.o)
 .debug_line    0x0000d139      0x4b5 /opt/devkitpro/libnds/lib/libnds9.a(video.o)
 .debug_line    0x0000d5ee     0x1414 /opt/devkitpro/libnds/lib/libnds9.a(console.o)
 .debug_line    0x0000ea02      0x74e /opt/devkitpro/libnds/lib/libnds9.a(sprite.o)
 .debug_line    0x0000f150      0x399 /opt/devkitpro/libnds/lib/libnds9.a(keys.o)
 .debug_line    0x0000f4e9      0x72f /opt/devkitpro/libnds/lib/libnds9.a(dldi.o)
 .debug_line    0x0000fc18      0x597 /opt/devkitpro/libnds/lib/libnds9.a(initSystem.o)
 .debug_line    0x000101af       0x8f /opt/devkitpro/libnds/lib/libnds9.a(securearea.o)
 .debug_line    0x0001023e      0x54c /opt/devkitpro/libnds/lib/libnds9.a(interrupts.o)
 .debug_line    0x0001078a      0x23b /opt/devkitpro/libnds/lib/libnds9.a(libnds_exit.arm.o)
 .debug_line    0x000109c5      0x645 /opt/devkitpro/libnds/lib/libnds9.a(card.o)
 .debug_line    0x0001100a     0x14f5 /opt/devkitpro/libnds/lib/libnds9.a(fifosystem.o)
 .debug_line    0x000124ff       0x96 /opt/devkitpro/libnds/lib/libnds9.a(dcache.o)
 .debug_line    0x00012595       0x4c /opt/devkitpro/libnds/lib/libnds9.a(dldi_stub.o)
 .debug_line    0x000125e1       0xe8 /opt/devkitpro/libnds/lib/libnds9.a(mpu_setup.o)
 .debug_line    0x000126c9       0x74 /opt/devkitpro/libnds/lib/libnds9.a(IntrWait.o)
 .debug_line    0x0001273d       0x5c /opt/devkitpro/libnds/lib/libnds9.a(cpu_clock.o)
 .debug_line    0x00012799       0x80 /opt/devkitpro/libnds/lib/libnds9.a(interruptDispatcher.o)
 .debug_line    0x00012819      0x1b0 /opt/devkitpro/libnds/lib/libnds9.a(biosCalls.o)
 .debug_line    0x000129c9       0x57 /opt/devkitpro/libnds/lib/libnds9.a(swiSoftReset.o)
 .debug_line    0x00012a20      0x725 /opt/devkitpro/libnds/lib/libnds9.a(background.o)
 .debug_line    0x00013145      0x837 /opt/devkitpro/libnds/lib/libnds9.a(trig.o)
 .debug_line    0x0001397c      0x4dc /opt/devkitpro/libnds/lib/libnds9.a(system.o)
 .debug_line    0x00013e58      0x41d /opt/devkitpro/libnds/lib/libnds9.a(sd.twl.o)

.debug_frame    0x00000000     0x2204
 *(.debug_frame)
 .debug_frame   0x00000000       0x28 main.o
 .debug_frame   0x00000028       0xf0 /opt/devkitpro/nflib/lib/libnflib.a(nf_2d.o)
 .debug_frame   0x00000118       0x8c /opt/devkitpro/nflib/lib/libnflib.a(nf_basic.o)
 .debug_frame   0x000001a4      0x294 /opt/devkitpro/nflib/lib/libnflib.a(nf_sprite256.o)
 .debug_frame   0x00000438      0x360 /opt/devkitpro/nflib/lib/libnflib.a(nf_tiledbg.o)
 .debug_frame   0x00000798      0x1c8 /opt/devkitpro/libnds/lib/libfilesystem.a(nitrofs.o)
 .debug_frame   0x00000960      0x100 /opt/devkitpro/libnds/lib/libfat.a(libfat.o)
 .debug_frame   0x00000a60      0x234 /opt/devkitpro/libnds/lib/libfat.a(fatfile.o)
 .debug_frame   0x00000c94      0x1bc /opt/devkitpro/libnds/lib/libfat.a(cache.o)
 .debug_frame   0x00000e50      0x17c /opt/devkitpro/libnds/lib/libfat.a(fatdir.o)
 .debug_frame   0x00000fcc      0x260 /opt/devkitpro/libnds/lib/libfat.a(directory.o)
 .debug_frame   0x0000122c      0x1cc /opt/devkitpro/libnds/lib/libfat.a(partition.o)
 .debug_frame   0x000013f8       0x50 /opt/devkitpro/libnds/lib/libfat.a(lock.o)
 .debug_frame   0x00001448       0x58 /opt/devkitpro/libnds/lib/libfat.a(filetime.o)
 .debug_frame   0x000014a0      0x120 /opt/devkitpro/libnds/lib/libfat.a(file_allocation_table.o)
 .debug_frame   0x000015c0       0xbc /opt/devkitpro/libnds/lib/libnds9.a(video.o)
 .debug_frame   0x0000167c      0x180 /opt/devkitpro/libnds/lib/libnds9.a(console.o)
 .debug_frame   0x000017fc       0xf0 /opt/devkitpro/libnds/lib/libnds9.a(sprite.o)
 .debug_frame   0x000018ec       0x8c /opt/devkitpro/libnds/lib/libnds9.a(keys.o)
 .debug_frame   0x00001978       0xa0 /opt/devkitpro/libnds/lib/libnds9.a(dldi.o)
 .debug_frame   0x00001a18       0x5c /opt/devkitpro/libnds/lib/libnds9.a(initSystem.o)
 .debug_frame   0x00001a74       0xa4 /opt/devkitpro/libnds/lib/libnds9.a(interrupts.o)
 .debug_frame   0x00001b18       0x38 /opt/devkitpro/libnds/lib/libnds9.a(libnds_exit.arm.o)
 .debug_frame   0x00001b50       0xf8 /opt/devkitpro/libnds/lib/libnds9.a(card.o)
 .debug_frame   0x00001c48      0x294 /opt/devkitpro/libnds/lib/libnds9.a(fifosystem.o)
 .debug_frame   0x00001edc       0xb8 /opt/devkitpro/libnds/lib/libnds9.a(background.o)
 .debug_frame   0x00001f94       0xd8 /opt/devkitpro/libnds/lib/libnds9.a(trig.o)
 .debug_frame   0x0000206c       0xf8 /opt/devkitpro/libnds/lib/libnds9.a(system.o)
 .debug_frame   0x00002164       0xa0 /opt/devkitpro/libnds/lib/libnds9.a(sd.twl.o)

.debug_str      0x00000000     0x6bbf
 *(.debug_str)
 .debug_str     0x00000000      0x74b main.o
                                0x80b (size before relaxing)
 .debug_str     0x0000074b      0x75b /opt/devkitpro/nflib/lib/libnflib.a(nf_2d.o)
                                0xa95 (size before relaxing)
 .debug_str     0x00000ea6      0x570 /opt/devkitpro/nflib/lib/libnflib.a(nf_basic.o)
                                0xc2c (size before relaxing)
 .debug_str     0x00001416      0x92f /opt/devkitpro/nflib/lib/libnflib.a(nf_sprite256.o)
                               0x11de (size before relaxing)
 .debug_str     0x00001d45      0x896 /opt/devkitpro/nflib/lib/libnflib.a(nf_tiledbg.o)
                               0x1276 (size before relaxing)
 .debug_str     0x000025db      0x8a0 /opt/devkitpro/libnds/lib/libfilesystem.a(nitrofs.o)
                                0xed1 (size before relaxing)
 .debug_str     0x00002e7b      0x558 /opt/devkitpro/libnds/lib/libfat.a(libfat.o)
                                0xf42 (size before relaxing)
 .debug_str     0x000033d3       0x4f /opt/devkitpro/libnds/lib/libfat.a(disc.o)
                                0x313 (size before relaxing)
 .debug_str     0x00003422      0x60a /opt/devkitpro/libnds/lib/libfat.a(fatfile.o)
                               0x116f (size before relaxing)
 .debug_str     0x00003a2c      0x1a6 /opt/devkitpro/libnds/lib/libfat.a(cache.o)
                                0x650 (size before relaxing)
 .debug_str     0x00003bd2      0x27a /opt/devkitpro/libnds/lib/libfat.a(fatdir.o)
                               0x10bd (size before relaxing)
 .debug_str     0x00003e4c      0x568 /opt/devkitpro/libnds/lib/libfat.a(directory.o)
                                0xfe9 (size before relaxing)
 .debug_str     0x000043b4      0x4f7 /opt/devkitpro/libnds/lib/libfat.a(partition.o)
                               0x13ae (size before relaxing)
 .debug_str     0x000048ab       0x55 /opt/devkitpro/libnds/lib/libfat.a(lock.o)
                                0x216 (size before relaxing)
 .debug_str     0x00004900       0x7a /opt/devkitpro/libnds/lib/libfat.a(filetime.o)
                                0x2c5 (size before relaxing)
 .debug_str     0x0000497a       0xc8 /opt/devkitpro/libnds/lib/libfat.a(file_allocation_table.o)
                                0x71f (size before relaxing)
 .debug_str     0x00004a42      0x3da /opt/devkitpro/libnds/lib/libnds9.a(video.o)
                                0xc53 (size before relaxing)
 .debug_str     0x00004e1c      0x517 /opt/devkitpro/libnds/lib/libnds9.a(console.o)
                               0x1282 (size before relaxing)
 .debug_str     0x00005333      0x145 /opt/devkitpro/libnds/lib/libnds9.a(sprite.o)
                                0x870 (size before relaxing)
 .debug_str     0x00005478      0x165 /opt/devkitpro/libnds/lib/libnds9.a(keys.o)
                                0x420 (size before relaxing)
 .debug_str     0x000055dd      0x218 /opt/devkitpro/libnds/lib/libnds9.a(dldi.o)
                                0x799 (size before relaxing)
 .debug_str     0x000057f5      0x36d /opt/devkitpro/libnds/lib/libnds9.a(initSystem.o)
                                0xb81 (size before relaxing)
 .debug_str     0x00005b62       0x7f /opt/devkitpro/libnds/lib/libnds9.a(securearea.o)
                                0x16e (size before relaxing)
 .debug_str     0x00005be1      0x19c /opt/devkitpro/libnds/lib/libnds9.a(interrupts.o)
                                0x496 (size before relaxing)
 .debug_str     0x00005d7d      0x1cd /opt/devkitpro/libnds/lib/libnds9.a(libnds_exit.arm.o)
                                0x3e5 (size before relaxing)
 .debug_str     0x00005f4a       0xef /opt/devkitpro/libnds/lib/libnds9.a(card.o)
                                0x2fb (size before relaxing)
 .debug_str     0x00006039      0x450 /opt/devkitpro/libnds/lib/libnds9.a(fifosystem.o)
                                0x8a9 (size before relaxing)
 .debug_str     0x00006489       0x15 /opt/devkitpro/libnds/lib/libnds9.a(dcache.o)
                                 0x69 (size before relaxing)
 .debug_str     0x0000649e        0xc /opt/devkitpro/libnds/lib/libnds9.a(dldi_stub.o)
                                 0x6c (size before relaxing)
 .debug_str     0x000064aa        0xc /opt/devkitpro/libnds/lib/libnds9.a(mpu_setup.o)
                                 0x6c (size before relaxing)
 .debug_str     0x000064b6        0xb /opt/devkitpro/libnds/lib/libnds9.a(IntrWait.o)
                                 0x6b (size before relaxing)
 .debug_str     0x000064c1        0xc /opt/devkitpro/libnds/lib/libnds9.a(cpu_clock.o)
                                 0x6c (size before relaxing)
 .debug_str     0x000064cd       0x16 /opt/devkitpro/libnds/lib/libnds9.a(interruptDispatcher.o)
                                 0x76 (size before relaxing)
 .debug_str     0x000064e3        0xc /opt/devkitpro/libnds/lib/libnds9.a(biosCalls.o)
                                 0x6c (size before relaxing)
 .debug_str     0x000064ef        0xf /opt/devkitpro/libnds/lib/libnds9.a(swiSoftReset.o)
                                 0x6f (size before relaxing)
 .debug_str     0x000064fe      0x128 /opt/devkitpro/libnds/lib/libnds9.a(background.o)
                                0x7a2 (size before relaxing)
 .debug_str     0x00006626       0xfa /opt/devkitpro/libnds/lib/libnds9.a(trig.o)
                                0x2fc (size before relaxing)
 .debug_str     0x00006720      0x356 /opt/devkitpro/libnds/lib/libnds9.a(system.o)
                                0x798 (size before relaxing)
 .debug_str     0x00006a76      0x149 /opt/devkitpro/libnds/lib/libnds9.a(sd.twl.o)
                                0x821 (size before relaxing)

.debug_loc      0x00000000     0xdcc3
 *(.debug_loc)
 .debug_loc     0x00000000     0x1783 /opt/devkitpro/libnds/lib/libfilesystem.a(nitrofs.o)
 .debug_loc     0x00001783      0x705 /opt/devkitpro/libnds/lib/libfat.a(libfat.o)
 .debug_loc     0x00001e88     0x3adb /opt/devkitpro/libnds/lib/libfat.a(fatfile.o)
 .debug_loc     0x00005963     0x16d7 /opt/devkitpro/libnds/lib/libfat.a(cache.o)
 .debug_loc     0x0000703a     0x1008 /opt/devkitpro/libnds/lib/libfat.a(fatdir.o)
 .debug_loc     0x00008042     0x3b6f /opt/devkitpro/libnds/lib/libfat.a(directory.o)
 .debug_loc     0x0000bbb1     0x132a /opt/devkitpro/libnds/lib/libfat.a(partition.o)
 .debug_loc     0x0000cedb       0x4a /opt/devkitpro/libnds/lib/libfat.a(filetime.o)
 .debug_loc     0x0000cf25      0xd9e /opt/devkitpro/libnds/lib/libfat.a(file_allocation_table.o)

.debug_macinfo
 *(.debug_macinfo)

.debug_weaknames
 *(.debug_weaknames)

.debug_funcnames
 *(.debug_funcnames)

.debug_typenames
 *(.debug_typenames)

.debug_varnames
 *(.debug_varnames)

.stack          0x00080000        0x0
                0x00080000                        _stack = .
 *(.stack)
LOAD /opt/devkitpro/devkitARM/bin/../lib/gcc/arm-none-eabi/12.2.0/../../../../arm-none-eabi/lib/ds_arm9_crt0.o
LOAD /opt/devkitpro/devkitARM/bin/../lib/gcc/arm-none-eabi/12.2.0/crti.o
LOAD /opt/devkitpro/devkitARM/bin/../lib/gcc/arm-none-eabi/12.2.0/crtbegin.o
LOAD main.o
LOAD /opt/devkitpro/nflib/lib/libnflib.a
LOAD /opt/devkitpro/libnds/lib/libfilesystem.a
LOAD /opt/devkitpro/libnds/lib/libfat.a
LOAD /opt/devkitpro/libnds/lib/libnds9.a
LOAD /opt/devkitpro/devkitARM/bin/../lib/gcc/arm-none-eabi/12.2.0/../../../../arm-none-eabi/lib/libstdc++.a
LOAD /opt/devkitpro/devkitARM/bin/../lib/gcc/arm-none-eabi/12.2.0/../../../../arm-none-eabi/lib/libm.a
START GROUP
LOAD /opt/devkitpro/devkitARM/bin/../lib/gcc/arm-none-eabi/12.2.0/libgcc.a
LOAD /opt/devkitpro/devkitARM/bin/../lib/gcc/arm-none-eabi/12.2.0/../../../../arm-none-eabi/lib/libg.a
LOAD /opt/devkitpro/devkitARM/bin/../lib/gcc/arm-none-eabi/12.2.0/../../../../arm-none-eabi/lib/libc.a
LOAD /opt/devkitpro/devkitARM/bin/../lib/gcc/arm-none-eabi/12.2.0/../../../../arm-none-eabi/lib/libsysbase.a
END GROUP
LOAD /opt/devkitpro/devkitARM/bin/../lib/gcc/arm-none-eabi/12.2.0/crtend.o
LOAD /opt/devkitpro/devkitARM/bin/../lib/gcc/arm-none-eabi/12.2.0/crtn.o
OUTPUT(/Users/Rein/Documents/Code/CCU/NDS-workshop/ccu-nds-workshop/demos/buttons/buttons.elf elf32-littlearm)
LOAD linker stubs

.debug_loclists
                0x00000000     0x7b91
 .debug_loclists
                0x00000000       0x3c main.o
 .debug_loclists
                0x0000003c      0x900 /opt/devkitpro/nflib/lib/libnflib.a(nf_2d.o)
 .debug_loclists
                0x0000093c      0x35a /opt/devkitpro/nflib/lib/libnflib.a(nf_basic.o)
 .debug_loclists
                0x00000c96     0x103e /opt/devkitpro/nflib/lib/libnflib.a(nf_sprite256.o)
 .debug_loclists
                0x00001cd4     0x2336 /opt/devkitpro/nflib/lib/libnflib.a(nf_tiledbg.o)
 .debug_loclists
                0x0000400a      0x1da /opt/devkitpro/libnds/lib/libnds9.a(video.o)
 .debug_loclists
                0x000041e4      0xf6c /opt/devkitpro/libnds/lib/libnds9.a(console.o)
 .debug_loclists
                0x00005150      0x5a6 /opt/devkitpro/libnds/lib/libnds9.a(sprite.o)
 .debug_loclists
                0x000056f6       0x17 /opt/devkitpro/libnds/lib/libnds9.a(keys.o)
 .debug_loclists
                0x0000570d      0x26e /opt/devkitpro/libnds/lib/libnds9.a(dldi.o)
 .debug_loclists
                0x0000597b       0xc5 /opt/devkitpro/libnds/lib/libnds9.a(initSystem.o)
 .debug_loclists
                0x00005a40      0x1a5 /opt/devkitpro/libnds/lib/libnds9.a(interrupts.o)
 .debug_loclists
                0x00005be5       0x48 /opt/devkitpro/libnds/lib/libnds9.a(libnds_exit.arm.o)
 .debug_loclists
                0x00005c2d      0x4ac /opt/devkitpro/libnds/lib/libnds9.a(card.o)
 .debug_loclists
                0x000060d9      0xe1a /opt/devkitpro/libnds/lib/libnds9.a(fifosystem.o)
 .debug_loclists
                0x00006ef3      0x2a3 /opt/devkitpro/libnds/lib/libnds9.a(background.o)
 .debug_loclists
                0x00007196      0x779 /opt/devkitpro/libnds/lib/libnds9.a(trig.o)
 .debug_loclists
                0x0000790f      0x140 /opt/devkitpro/libnds/lib/libnds9.a(system.o)
 .debug_loclists
                0x00007a4f      0x142 /opt/devkitpro/libnds/lib/libnds9.a(sd.twl.o)

.debug_rnglists
                0x00000000      0xc92
 .debug_rnglists
                0x00000000       0x14 main.o
 .debug_rnglists
                0x00000014       0x27 /opt/devkitpro/nflib/lib/libnflib.a(nf_2d.o)
 .debug_rnglists
                0x0000003b       0x2c /opt/devkitpro/nflib/lib/libnflib.a(nf_basic.o)
 .debug_rnglists
                0x00000067       0xd2 /opt/devkitpro/nflib/lib/libnflib.a(nf_sprite256.o)
 .debug_rnglists
                0x00000139      0x1ae /opt/devkitpro/nflib/lib/libnflib.a(nf_tiledbg.o)
 .debug_rnglists
                0x000002e7       0x3e /opt/devkitpro/libnds/lib/libnds9.a(video.o)
 .debug_rnglists
                0x00000325      0x20e /opt/devkitpro/libnds/lib/libnds9.a(console.o)
 .debug_rnglists
                0x00000533       0x7b /opt/devkitpro/libnds/lib/libnds9.a(sprite.o)
 .debug_rnglists
                0x000005ae       0x44 /opt/devkitpro/libnds/lib/libnds9.a(keys.o)
 .debug_rnglists
                0x000005f2       0x33 /opt/devkitpro/libnds/lib/libnds9.a(dldi.o)
 .debug_rnglists
                0x00000625       0x20 /opt/devkitpro/libnds/lib/libnds9.a(initSystem.o)
 .debug_rnglists
                0x00000645       0x8b /opt/devkitpro/libnds/lib/libnds9.a(interrupts.o)
 .debug_rnglists
                0x000006d0       0x19 /opt/devkitpro/libnds/lib/libnds9.a(libnds_exit.arm.o)
 .debug_rnglists
                0x000006e9       0x89 /opt/devkitpro/libnds/lib/libnds9.a(card.o)
 .debug_rnglists
                0x00000772      0x2a4 /opt/devkitpro/libnds/lib/libnds9.a(fifosystem.o)
 .debug_rnglists
                0x00000a16       0x25 /opt/devkitpro/libnds/lib/libnds9.a(dcache.o)
 .debug_rnglists
                0x00000a3b       0x20 /opt/devkitpro/libnds/lib/libnds9.a(mpu_setup.o)
 .debug_rnglists
                0x00000a5b       0x19 /opt/devkitpro/libnds/lib/libnds9.a(IntrWait.o)
 .debug_rnglists
                0x00000a74       0x91 /opt/devkitpro/libnds/lib/libnds9.a(biosCalls.o)
 .debug_rnglists
                0x00000b05       0x7c /opt/devkitpro/libnds/lib/libnds9.a(background.o)
 .debug_rnglists
                0x00000b81       0x9d /opt/devkitpro/libnds/lib/libnds9.a(trig.o)
 .debug_rnglists
                0x00000c1e       0x49 /opt/devkitpro/libnds/lib/libnds9.a(system.o)
 .debug_rnglists
                0x00000c67       0x2b /opt/devkitpro/libnds/lib/libnds9.a(sd.twl.o)

.debug_ranges   0x00000000     0x1230
 .debug_ranges  0x00000000      0x258 /opt/devkitpro/libnds/lib/libfilesystem.a(nitrofs.o)
 .debug_ranges  0x00000258       0xc0 /opt/devkitpro/libnds/lib/libfat.a(libfat.o)
 .debug_ranges  0x00000318      0x408 /opt/devkitpro/libnds/lib/libfat.a(fatfile.o)
 .debug_ranges  0x00000720       0xc0 /opt/devkitpro/libnds/lib/libfat.a(cache.o)
 .debug_ranges  0x000007e0      0x238 /opt/devkitpro/libnds/lib/libfat.a(fatdir.o)
 .debug_ranges  0x00000a18      0x488 /opt/devkitpro/libnds/lib/libfat.a(directory.o)
 .debug_ranges  0x00000ea0      0x2b8 /opt/devkitpro/libnds/lib/libfat.a(partition.o)
 .debug_ranges  0x00001158       0x10 /opt/devkitpro/libnds/lib/libfat.a(lock.o)
 .debug_ranges  0x00001168       0x20 /opt/devkitpro/libnds/lib/libfat.a(filetime.o)
 .debug_ranges  0x00001188       0xa8 /opt/devkitpro/libnds/lib/libfat.a(file_allocation_table.o)

.debug_line_str
                0x00000000      0x1e3
 .debug_line_str
                0x00000000       0x64 /opt/devkitpro/libnds/lib/libnds9.a(dcache.o)
                                 0xc8 (size before relaxing)
 .debug_line_str
                0x00000064       0x6c /opt/devkitpro/libnds/lib/libnds9.a(dldi_stub.o)
                                 0xd8 (size before relaxing)
 .debug_line_str
                0x000000d0       0x6e /opt/devkitpro/libnds/lib/libnds9.a(mpu_setup.o)
                                 0xdc (size before relaxing)
 .debug_line_str
                0x0000013e        0xb /opt/devkitpro/libnds/lib/libnds9.a(IntrWait.o)
                                 0xda (size before relaxing)
 .debug_line_str
                0x00000149        0xc /opt/devkitpro/libnds/lib/libnds9.a(cpu_clock.o)
                                 0xdc (size before relaxing)
 .debug_line_str
                0x00000155       0x73 /opt/devkitpro/libnds/lib/libnds9.a(interruptDispatcher.o)
                                 0xe6 (size before relaxing)
 .debug_line_str
                0x000001c8        0xc /opt/devkitpro/libnds/lib/libnds9.a(biosCalls.o)
                                 0xd2 (size before relaxing)
 .debug_line_str
                0x000001d4        0xf /opt/devkitpro/libnds/lib/libnds9.a(swiSoftReset.o)
                                 0xd8 (size before relaxing)
